(lp0
(dp1
S'best_trail'
p2
(lp3
I50
aI62
aI62
aI66
aI50
aI44
aI64
aI80
aI68
aI60
aI38
aI48
aI60
aI74
aI60
aI52
aI38
aI44
aI44
aI62
asS'running_time'
p4
(lp5
F0.6110119819641113
aF0.8146028518676758
aF0.9161620140075684
aF0.8159778118133545
aF0.6115989685058594
aF0.91520094871521
aF0.6164278984069824
aF0.9184138774871826
aF0.8129639625549316
aF0.5153160095214844
aF1.2184319496154785
aF0.914484977722168
aF0.8156309127807617
aF1.5191569328308105
aF1.11934494972229
aF0.3118879795074463
aF0.5157830715179443
aF0.8139469623565674
aF1.1160378456115723
aF1.0155510902404785
asS'best_at_iteration'
p6
(lp7
I14
aI1
aI10
aI14
aI13
aI0
aI4
aI8
aI3
aI11
aI9
aI8
aI1
aI4
aI9
aI0
aI7
aI1
aI6
aI2
asa(dp8
g2
(lp9
I60
aI64
aI50
aI50
aI50
aI56
aI44
aI44
aI54
aI58
aI58
aI60
aI54
aI38
aI44
aI62
aI60
aI44
aI52
aI50
asg4
(lp10
F1.0137221813201904
aF0.8154900074005127
aF1.7197291851043701
aF1.827118158340454
aF0.914769172668457
aF1.2172040939331055
aF1.418776035308838
aF1.3162121772766113
aF1.114469051361084
aF1.2120790481567383
aF1.019275188446045
aF1.7205469608306885
aF1.725290060043335
aF1.6164309978485107
aF1.019766092300415
aF1.6151690483093262
aF1.5154550075531006
aF1.3153400421142578
aF1.2136361598968506
aF1.2195680141448975
asg6
(lp11
I8
aI9
aI14
aI2
aI13
aI14
aI2
aI12
aI8
aI10
aI13
aI9
aI14
aI14
aI4
aI0
aI10
aI14
aI14
aI14
asa(dp12
g2
(lp13
I54
aI44
aI38
aI50
aI50
aI46
aI38
aI50
aI44
aI44
aI52
aI62
aI50
aI50
aI62
aI38
aI54
aI56
aI44
aI50
asg4
(lp14
F2.4271719455718994
aF2.020009994506836
aF1.9266119003295898
aF1.9314000606536865
aF2.231081962585449
aF2.321202039718628
aF1.5273258686065674
aF1.8331749439239502
aF1.7195470333099365
aF1.8298749923706055
aF1.8187110424041748
aF1.7183849811553955
aF1.718074083328247
aF1.9288899898529053
aF2.0360169410705566
aF1.824234962463379
aF2.3338868618011475
aF1.724513053894043
aF2.734062910079956
aF2.336181163787842
asg6
(lp15
I4
aI8
aI10
aI4
aI5
aI14
aI5
aI10
aI2
aI1
aI13
aI7
aI3
aI10
aI7
aI4
aI1
aI8
aI1
aI1
asa(dp16
g2
(lp17
I44
aI56
aI44
aI42
aI46
aI38
aI50
aI44
aI44
aI44
aI44
aI38
aI50
aI44
aI44
aI44
aI44
aI50
aI44
aI44
asg4
(lp18
F2.822075843811035
aF2.7704029083251953
aF2.4187099933624268
aF2.828700065612793
aF2.832413911819458
aF3.116119146347046
aF2.72629714012146
aF2.437690019607544
aF3.1247169971466064
aF2.9747121334075928
aF2.9520649909973145
aF2.728671073913574
aF2.816823959350586
aF2.9237000942230225
aF2.618799924850464
aF3.0560290813446045
aF2.6420300006866455
aF2.8419759273529053
aF3.221669912338257
aF3.7483890056610107
asg6
(lp19
I4
aI13
aI7
aI9
aI7
aI11
aI1
aI7
aI12
aI0
aI3
aI6
aI4
aI2
aI11
aI2
aI0
aI2
aI5
aI6
asa(dp20
g2
(lp21
I38
aI42
aI44
aI38
aI44
aI38
aI38
aI44
aI44
aI54
aI46
aI46
aI44
aI44
aI38
aI48
aI44
aI48
aI44
aI44
asg4
(lp22
F3.5661749839782715
aF2.7360401153564453
aF3.359095811843872
aF3.140302896499634
aF3.0281732082366943
aF3.6670069694519043
aF2.7298169136047363
aF3.161376953125
aF3.2703440189361572
aF3.040329933166504
aF3.9348769187927246
aF3.6464970111846924
aF3.8620779514312744
aF3.5531489849090576
aF3.0805740356445312
aF3.427617073059082
aF2.623607873916626
aF2.554332971572876
aF2.946871042251587
aF3.3194689750671387
asg6
(lp23
I13
aI14
aI8
aI10
aI1
aI4
aI8
aI1
aI4
aI3
aI6
aI7
aI3
aI7
aI4
aI14
aI0
aI0
aI0
aI0
asa(dp24
g2
(lp25
I44
aI38
aI44
aI38
aI44
aI44
aI50
aI44
aI44
aI38
aI42
aI38
aI38
aI52
aI38
aI46
aI44
aI44
aI44
aI44
asg4
(lp26
F3.8604791164398193
aF3.6351990699768066
aF3.4517369270324707
aF3.845672130584717
aF3.9669408798217773
aF4.055307149887085
aF3.938436985015869
aF4.127516984939575
aF3.177794933319092
aF3.7424519062042236
aF3.5287342071533203
aF4.2485880851745605
aF3.2094919681549072
aF4.473635911941528
aF3.025521993637085
aF3.6390860080718994
aF3.989442825317383
aF4.3445281982421875
aF3.929060935974121
aF3.4767870903015137
asg6
(lp27
I13
aI1
aI2
aI1
aI10
aI0
aI8
aI6
aI13
aI0
aI10
aI0
aI0
aI2
aI0
aI13
aI11
aI3
aI12
aI12
asa(dp28
g2
(lp29
I38
aI38
aI42
aI48
aI44
aI44
aI44
aI46
aI44
aI42
aI42
aI38
aI44
aI44
aI42
aI42
aI44
aI44
aI38
aI48
asg4
(lp30
F4.07865309715271
aF4.344116926193237
aF4.026309013366699
aF3.674914836883545
aF4.716061115264893
aF4.86373496055603
aF4.231104135513306
aF4.496539831161499
aF4.149688005447388
aF4.4498131275177
aF3.836782217025757
aF4.27550196647644
aF4.951995134353638
aF4.520658016204834
aF3.8640201091766357
aF4.3155128955841064
aF4.428465843200684
aF4.000407934188843
aF4.252485036849976
aF4.857501029968262
asg6
(lp31
I2
aI3
aI10
aI6
aI1
aI10
aI9
aI2
aI12
aI14
aI12
aI13
aI1
aI5
aI6
aI7
aI7
aI4
aI1
aI11
asa(dp32
g2
(lp33
I44
aI38
aI38
aI44
aI38
aI44
aI46
aI40
aI44
aI38
aI38
aI38
aI38
aI42
aI38
aI38
aI38
aI38
aI38
aI44
asg4
(lp34
F5.449162006378174
aF5.654576063156128
aF4.877187967300415
aF5.531879901885986
aF6.013025999069214
aF5.498901128768921
aF6.263146877288818
aF5.125652074813843
aF5.255849838256836
aF5.675991058349609
aF4.992761850357056
aF4.887811183929443
aF5.801052093505859
aF4.662448883056641
aF5.285156965255737
aF5.405733108520508
aF4.700179815292358
aF5.564594030380249
aF4.778885126113892
aF6.303384065628052
asg6
(lp35
I6
aI11
aI11
aI1
aI12
aI4
aI10
aI6
aI4
aI9
aI13
aI8
aI2
aI5
aI8
aI2
aI3
aI13
aI11
aI2
asa(dp36
g2
(lp37
I38
aI42
aI42
aI38
aI44
aI38
aI44
aI44
aI42
aI44
aI44
aI38
aI38
aI38
aI42
aI38
aI38
aI38
aI38
aI38
asg4
(lp38
F6.061255931854248
aF7.034956932067871
aF7.288644075393677
aF7.188663959503174
aF6.725430011749268
aF7.3228960037231445
aF7.507612943649292
aF7.430981874465942
aF6.59696102142334
aF6.994598150253296
aF7.030803918838501
aF7.617685079574585
aF7.017122983932495
aF7.368297100067139
aF6.110290050506592
aF6.793457984924316
aF6.7695581912994385
aF6.964934825897217
aF7.313939094543457
aF7.763154983520508
asg6
(lp39
I8
aI8
aI6
aI10
aI3
aI13
aI12
aI1
aI12
aI8
aI4
aI8
aI12
aI8
aI0
aI13
aI9
aI8
aI3
aI13
asa(dp40
g2
(lp41
I44
aI38
aI38
aI38
aI38
aI38
aI38
aI38
aI38
aI38
aI38
aI38
aI38
aI44
aI38
aI38
aI38
aI38
aI38
aI38
asg4
(lp42
F11.476807832717896
aF10.324697017669678
aF9.848510026931763
aF10.47402286529541
aF11.304179906845093
aF11.191399097442627
aF11.015771865844727
aF10.154469966888428
aF10.585301876068115
aF11.556210041046143
aF12.32057499885559
aF10.4911470413208
aF11.093692779541016
aF11.523046970367432
aF9.78041696548462
aF11.30227017402649
aF10.68106985092163
aF10.418134212493896
aF10.166435956954956
aF11.015836000442505
asg6
(lp43
I1
aI2
aI4
aI11
aI1
aI2
aI3
aI0
aI3
aI3
aI12
aI5
aI7
aI0
aI4
aI0
aI2
aI5
aI4
aI5
asa(dp44
g2
(lp45
I38
aI38
aI38
aI38
aI38
aI38
aI38
aI38
aI42
aI38
aI38
aI38
aI38
aI44
aI38
aI38
aI38
aI38
aI38
aI38
asg4
(lp46
F19.00496196746826
aF19.970481872558594
aF20.197440147399902
aF19.906896114349365
aF19.420724153518677
aF20.354438066482544
aF20.342368125915527
aF19.244686126708984
aF18.558834075927734
aF19.173233032226562
aF20.510919094085693
aF20.468608856201172
aF18.95746397972107
aF20.255661010742188
aF20.48873782157898
aF19.45401692390442
aF19.92329216003418
aF21.295313119888306
aF20.231487035751343
aF19.523529052734375
asg6
(lp47
I6
aI1
aI1
aI2
aI5
aI4
aI0
aI4
aI10
aI0
aI2
aI0
aI1
aI7
aI10
aI5
aI10
aI2
aI1
aI0
asa(dp48
g2
(lp49
I38
aI38
aI38
aI38
aI38
aI38
aI38
aI38
aI38
aI38
aI38
aI38
aI38
aI38
aI38
aI38
aI38
aI38
aI38
aI38
asg4
(lp50
F37.828129053115845
aF39.24328804016113
aF38.18976712226868
aF37.075051069259644
aF39.74759817123413
aF37.8669171333313
aF36.75726103782654
aF37.73115801811218
aF34.91150903701782
aF38.27639889717102
aF37.30231690406799
aF39.82900404930115
aF39.88458299636841
aF38.24796199798584
aF38.39492988586426
aF37.70093393325806
aF39.073010206222534
aF41.30746507644653
aF36.60949397087097
aF37.65101099014282
asg6
(lp51
I0
aI2
aI0
aI1
aI5
aI5
aI1
aI2
aI0
aI3
aI9
aI3
aI2
aI2
aI1
aI2
aI0
aI2
aI0
aI0
asa(dp52
g2
(lp53
I38
aI38
aI38
aI38
aI38
aI38
aI38
aI38
aI38
aI38
aI38
aI38
aI38
aI38
aI38
aI38
aI38
aI38
aI38
aI38
asg4
(lp54
F76.0905430316925
aF74.97159194946289
aF74.31261992454529
aF75.75229001045227
aF78.86313509941101
aF75.37032699584961
aF73.92897319793701
aF77.2331030368805
aF77.54846596717834
aF77.25257706642151
aF74.67565488815308
aF77.58850479125977
aF73.92108678817749
aF77.30296587944031
aF74.41856908798218
aF78.43982291221619
aF76.53596115112305
aF75.72995185852051
aF77.24851703643799
aF75.17442798614502
asg6
(lp55
I0
aI0
aI0
aI0
aI0
aI0
aI0
aI2
aI0
aI1
aI0
aI0
aI1
aI3
aI2
aI0
aI0
aI2
aI0
aI1
asa.