(lp0
(dp1
S'best_trail'
p2
(lp3
I38
aI40
aI38
aI38
aI44
aI38
aI38
aI38
aI44
aI44
aI44
aI44
aI44
aI44
aI44
aI38
aI44
aI48
aI38
aI38
asS'running_time'
p4
(lp5
F5.0637359619140625
aF5.39280104637146
aF5.547112941741943
aF5.3732590675354
aF6.42919397354126
aF5.448312044143677
aF5.940069913864136
aF4.799543857574463
aF4.955951929092407
aF4.091688871383667
aF5.861552953720093
aF5.4800310134887695
aF5.048689126968384
aF5.760318994522095
aF5.110131025314331
aF5.650422096252441
aF5.451231002807617
aF5.404403924942017
aF5.285483121871948
aF4.783522129058838
asS'best_at_iteration'
p6
(lp7
I3
aI14
aI4
aI8
aI11
aI14
aI4
aI7
aI2
aI11
aI2
aI0
aI4
aI0
aI3
aI5
aI2
aI6
aI7
aI0
asa(dp8
g2
(lp9
I38
aI42
aI44
aI42
aI44
aI44
aI38
aI44
aI38
aI46
aI44
aI42
aI44
aI40
aI46
aI40
aI46
aI38
aI48
aI38
asg4
(lp10
F5.809018135070801
aF4.698891878128052
aF6.412477970123291
aF4.913603067398071
aF4.61953592300415
aF5.80156397819519
aF4.573103904724121
aF5.039292812347412
aF5.656186103820801
aF5.064543008804321
aF5.804167032241821
aF5.321001052856445
aF5.184503078460693
aF5.921531915664673
aF6.112926006317139
aF6.033522129058838
aF5.119118928909302
aF5.125942945480347
aF4.966012954711914
aF5.8745410442352295
asg6
(lp11
I3
aI6
aI0
aI0
aI1
aI3
aI12
aI4
aI5
aI8
aI14
aI7
aI8
aI7
aI3
aI3
aI2
aI9
aI3
aI2
asa(dp12
g2
(lp13
I38
aI46
aI44
aI42
aI38
aI38
aI38
aI46
aI44
aI40
aI44
aI44
aI38
aI42
aI38
aI44
aI38
aI44
aI38
aI44
asg4
(lp14
F5.519184827804565
aF4.536816120147705
aF6.749053955078125
aF4.887632846832275
aF5.195888042449951
aF5.972714900970459
aF5.168673038482666
aF5.205348014831543
aF4.821001052856445
aF5.44328498840332
aF5.44843602180481
aF5.624511957168579
aF5.422762870788574
aF5.490680932998657
aF5.270620107650757
aF4.918736934661865
aF5.884142160415649
aF5.168689012527466
aF5.240714073181152
aF5.77632212638855
asg6
(lp15
I5
aI5
aI6
aI13
aI9
aI10
aI1
aI7
aI2
aI7
aI6
aI3
aI5
aI5
aI3
aI2
aI10
aI2
aI10
aI5
asa(dp16
g2
(lp17
I40
aI38
aI38
aI38
aI38
aI44
aI38
aI44
aI38
aI42
aI38
aI44
aI38
aI44
aI38
aI44
aI44
aI44
aI44
aI38
asg4
(lp18
F5.659740924835205
aF5.666482925415039
aF4.799130916595459
aF5.564012050628662
aF5.573544979095459
aF5.711946964263916
aF5.283262014389038
aF5.407908201217651
aF6.133265972137451
aF5.014647006988525
aF5.533695936203003
aF5.58036994934082
aF5.395117998123169
aF6.097713947296143
aF5.610599994659424
aF6.143948078155518
aF5.690746068954468
aF5.302364110946655
aF5.438006162643433
aF5.725509166717529
asg6
(lp19
I5
aI14
aI3
aI7
aI7
aI5
aI3
aI5
aI2
aI6
aI10
aI5
aI8
aI14
aI3
aI1
aI3
aI0
aI3
aI1
asa(dp20
g2
(lp21
I50
aI38
aI38
aI44
aI42
aI44
aI38
aI44
aI44
aI38
aI44
aI38
aI44
aI46
aI44
aI44
aI38
aI40
aI38
aI38
asg4
(lp22
F5.227657079696655
aF5.369075059890747
aF6.074787855148315
aF4.486040115356445
aF5.415168046951294
aF5.805294036865234
aF4.871172904968262
aF5.348730087280273
aF5.371299982070923
aF5.201323986053467
aF4.918805122375488
aF5.331170082092285
aF4.804612874984741
aF5.4660890102386475
aF5.2668540477752686
aF5.367002010345459
aF4.7789881229400635
aF6.334177017211914
aF4.946364164352417
aF4.903942108154297
asg6
(lp23
I5
aI10
aI11
aI3
aI6
aI5
aI10
aI3
aI13
aI2
aI12
aI2
aI8
aI3
aI1
aI3
aI1
aI3
aI8
aI14
asa(dp24
g2
(lp25
I44
aI44
aI38
aI44
aI42
aI42
aI50
aI42
aI44
aI38
aI38
aI44
aI38
aI38
aI42
aI48
aI44
aI44
aI38
aI42
asg4
(lp26
F5.733886003494263
aF4.823697090148926
aF6.157911062240601
aF5.42333197593689
aF4.907741069793701
aF5.620012044906616
aF5.816940784454346
aF5.866395950317383
aF5.47492790222168
aF4.976258993148804
aF5.718494892120361
aF5.237653970718384
aF4.907119989395142
aF5.459579944610596
aF5.498140096664429
aF5.170530080795288
aF5.352102994918823
aF4.852319002151489
aF5.3373730182647705
aF5.874673128128052
asg6
(lp27
I1
aI5
aI13
aI3
aI11
aI3
aI0
aI14
aI1
aI14
aI5
aI4
aI2
aI2
aI1
aI4
aI5
aI8
aI0
aI11
asa(dp28
g2
(lp29
I38
aI38
aI44
aI38
aI38
aI44
aI38
aI38
aI46
aI38
aI38
aI38
aI38
aI50
aI40
aI44
aI50
aI44
aI44
aI44
asg4
(lp30
F5.241207122802734
aF5.081860065460205
aF5.184506893157959
aF6.18469500541687
aF5.360881090164185
aF5.567920923233032
aF4.758136034011841
aF4.726370096206665
aF5.453566074371338
aF4.993224859237671
aF5.110946893692017
aF5.624186038970947
aF5.827005863189697
aF5.3845250606536865
aF5.254796981811523
aF6.191272974014282
aF5.49322509765625
aF4.874273061752319
aF5.787102937698364
aF5.646672964096069
asg6
(lp31
I9
aI11
aI10
aI1
aI6
aI5
aI3
aI4
aI5
aI4
aI11
aI2
aI6
aI2
aI6
aI1
aI9
aI0
aI2
aI6
asa(dp32
g2
(lp33
I50
aI46
aI44
aI38
aI44
aI40
aI38
aI44
aI46
aI46
aI42
aI40
aI44
aI44
aI40
aI38
aI38
aI44
aI38
aI44
asg4
(lp34
F5.372291088104248
aF5.458078145980835
aF4.924939870834351
aF4.85191798210144
aF5.1781699657440186
aF5.652510166168213
aF5.427917957305908
aF5.77419114112854
aF4.9387922286987305
aF4.916882038116455
aF5.927005052566528
aF5.371531009674072
aF5.222059965133667
aF4.7809929847717285
aF5.3177759647369385
aF5.395750999450684
aF5.772125005722046
aF5.8267340660095215
aF4.8552470207214355
aF5.409154176712036
asg6
(lp35
I0
aI14
aI3
aI2
aI0
aI5
aI2
aI14
aI12
aI1
aI11
aI1
aI7
aI0
aI6
aI7
aI8
aI2
aI3
aI3
asa(dp36
g2
(lp37
I38
aI44
aI44
aI42
aI44
aI44
aI38
aI38
aI40
aI38
aI38
aI44
aI38
aI44
aI50
aI44
aI42
aI44
aI44
aI50
asg4
(lp38
F5.5088958740234375
aF5.036051034927368
aF5.956256151199341
aF5.7684478759765625
aF5.194844961166382
aF5.281213998794556
aF5.0278120040893555
aF5.299062967300415
aF5.559612989425659
aF4.921173810958862
aF6.857363939285278
aF5.1336541175842285
aF5.236664056777954
aF6.086148023605347
aF5.224112033843994
aF4.8556718826293945
aF5.343995094299316
aF5.6264660358428955
aF4.778880834579468
aF4.738209009170532
asg6
(lp39
I7
aI4
aI3
aI13
aI0
aI1
aI13
aI3
aI6
aI0
aI9
aI1
aI3
aI8
aI1
aI0
aI6
aI5
aI5
aI0
asa(dp40
g2
(lp41
I38
aI38
aI44
aI38
aI44
aI38
aI44
aI38
aI42
aI38
aI44
aI48
aI38
aI38
aI46
aI50
aI44
aI44
aI38
aI44
asg4
(lp42
F5.25157904624939
aF5.098995208740234
aF5.296807050704956
aF4.514545917510986
aF5.176393032073975
aF6.344834089279175
aF4.907164096832275
aF5.604742050170898
aF5.793069124221802
aF4.9700751304626465
aF5.845786094665527
aF4.907831192016602
aF5.32262396812439
aF5.783360958099365
aF4.975103855133057
aF5.509259939193726
aF6.043636083602905
aF5.573739051818848
aF6.371572971343994
aF4.7851340770721436
asg6
(lp43
I13
aI6
aI6
aI14
aI1
aI8
aI3
aI13
aI14
aI5
aI3
aI10
aI7
aI6
aI12
aI1
aI3
aI9
aI14
aI1
asa(dp44
g2
(lp45
I44
aI38
aI48
aI44
aI38
aI42
aI38
aI38
aI44
aI44
aI38
aI38
aI38
aI38
aI38
aI38
aI38
aI44
aI44
aI38
asg4
(lp46
F5.507076025009155
aF5.6093668937683105
aF5.318500995635986
aF4.903303861618042
aF4.9721009731292725
aF5.427303791046143
aF5.868212938308716
aF5.812146902084351
aF4.703265905380249
aF5.813979864120483
aF6.333668947219849
aF4.714927911758423
aF5.429491996765137
aF5.697774171829224
aF4.8231940269470215
aF5.728876829147339
aF4.8040008544921875
aF5.482901096343994
aF4.915755987167358
aF5.88590407371521
asg6
(lp47
I12
aI7
aI6
aI5
aI11
aI3
aI13
aI0
aI1
aI0
aI3
aI0
aI0
aI3
aI11
aI4
aI1
aI9
aI5
aI4
asa(dp48
g2
(lp49
I44
aI44
aI38
aI44
aI38
aI42
aI44
aI44
aI38
aI38
aI44
aI44
aI44
aI46
aI42
aI38
aI44
aI44
aI44
aI38
asg4
(lp50
F6.383198022842407
aF4.58160400390625
aF5.814327001571655
aF5.083405017852783
aF5.6597230434417725
aF6.082360029220581
aF5.161422967910767
aF5.699501991271973
aF4.705111980438232
aF4.397485017776489
aF5.534240961074829
aF5.91377592086792
aF5.160069942474365
aF5.354022979736328
aF5.471674919128418
aF5.791938066482544
aF5.4965691566467285
aF4.21190619468689
aF5.449203968048096
aF5.476492881774902
asg6
(lp51
I4
aI12
aI1
aI9
aI6
aI6
aI7
aI10
aI3
aI11
aI2
aI10
aI3
aI0
aI1
aI3
aI2
aI1
aI5
aI1
asa(dp52
g2
(lp53
I38
aI38
aI40
aI38
aI38
aI44
aI44
aI38
aI38
aI44
aI44
aI44
aI38
aI38
aI44
aI44
aI38
aI38
aI44
aI44
asg4
(lp54
F5.4300010204315186
aF4.389226913452148
aF5.405281066894531
aF5.474458932876587
aF5.486923933029175
aF6.44352912902832
aF4.988363981246948
aF5.191801071166992
aF4.963382005691528
aF5.073410987854004
aF4.877495050430298
aF5.629017114639282
aF5.273146867752075
aF5.652241945266724
aF5.626451015472412
aF5.093609094619751
aF5.427322149276733
aF5.811280012130737
aF4.124284982681274
aF4.571649074554443
asg6
(lp55
I13
aI10
aI9
aI2
aI14
aI4
aI3
aI5
aI4
aI0
aI5
aI6
aI6
aI1
aI0
aI2
aI7
aI12
aI14
aI4
asa.