(lp0
(dp1
S'best_trail'
p2
(lp3
I42
aI44
aI38
aI38
aI38
aI38
aI38
aI44
aI44
aI46
aI38
aI44
aI44
aI38
aI38
aI46
aI38
aI44
aI44
aI38
asS'running_time'
p4
(lp5
F4.823786020278931
aF5.966660976409912
aF5.6853251457214355
aF4.974426984786987
aF5.290069103240967
aF5.3150389194488525
aF5.6457438468933105
aF5.15205192565918
aF4.704783916473389
aF5.285727024078369
aF5.676896095275879
aF5.672930955886841
aF4.928956985473633
aF4.661153078079224
aF5.339472055435181
aF5.340084075927734
aF4.862985849380493
aF4.556025981903076
aF5.013643026351929
aF5.470541000366211
asS'best_at_iteration'
p6
(lp7
I11
aI13
aI12
aI13
aI8
aI6
aI12
aI7
aI3
aI0
aI3
aI11
aI8
aI6
aI9
aI7
aI11
aI0
aI2
aI4
asa(dp8
g2
(lp9
I50
aI44
aI50
aI50
aI54
aI44
aI54
aI44
aI38
aI50
aI48
aI44
aI58
aI44
aI50
aI38
aI50
aI50
aI44
aI44
asg4
(lp10
F4.820610046386719
aF4.621129035949707
aF4.320785999298096
aF5.11925196647644
aF4.317553997039795
aF4.12012505531311
aF4.816890001296997
aF4.6170549392700195
aF4.626463890075684
aF4.616715908050537
aF4.425909996032715
aF4.2205281257629395
aF5.520776033401489
aF4.318705081939697
aF4.9182288646698
aF4.82349705696106
aF4.0221240520477295
aF4.423211097717285
aF4.718250036239624
aF4.824877977371216
asg6
(lp11
I13
aI0
aI6
aI4
aI4
aI2
aI4
aI0
aI0
aI1
aI1
aI10
aI6
aI13
aI8
aI8
aI3
aI12
aI0
aI5
asa.