(lp0
(dp1
S'best_trail'
p2
(lp3
I455
aI833
aI445
aI513
aI613
aI507
aI547
aI523
aI443
aI453
asS'running_time'
p4
(lp5
F85.39469504356384
aF85.11928701400757
aF83.80861210823059
aF84.46811389923096
aF92.26876401901245
aF123.41050004959106
aF160.54207587242126
aF153.30742502212524
aF101.6381950378418
aF154.7178978919983
asS'best_at_iteration'
p6
(lp7
I7
aI13
aI6
aI10
aI6
aI11
aI12
aI9
aI13
aI9
asa(dp8
g2
(lp9
I385
aI485
aI479
aI565
aI579
aI625
aI499
aI521
aI555
aI583
asg4
(lp10
F169.3766438961029
aF156.94915294647217
aF97.72273206710815
aF160.33662104606628
aF172.4126079082489
aF188.29035997390747
aF147.38941287994385
aF191.87548303604126
aF174.5732650756836
aF186.7452268600464
asg6
(lp11
I9
aI8
aI6
aI13
aI7
aI9
aI6
aI6
aI7
aI8
asa(dp12
g2
(lp13
I555
aI549
aI505
aI367
aI453
aI541
aI327
aI461
aI499
aI627
asg4
(lp14
F172.70865607261658
aF107.51967287063599
aF99.25137209892273
aF91.8267970085144
aF99.6356840133667
aF136.50556707382202
aF141.00067400932312
aF175.66619992256165
aF149.45514392852783
aF159.77948307991028
asg6
(lp15
I14
aI9
aI11
aI12
aI11
aI9
aI14
aI9
aI6
aI14
asa(dp16
g2
(lp17
I435
aI487
aI527
aI409
aI521
aI477
aI565
aI477
aI533
aI497
asg4
(lp18
F170.83720803260803
aF153.97691202163696
aF185.96867418289185
aF155.26959085464478
aF144.64515686035156
aF126.9169659614563
aF194.38755798339844
aF190.1357569694519
aF183.88784003257751
aF153.7275528907776
asg6
(lp19
I14
aI11
aI11
aI14
aI11
aI1
aI11
aI13
aI10
aI9
asa(dp20
g2
(lp21
I443
aI631
aI513
aI459
aI511
aI543
aI541
aI471
aI361
aI467
asg4
(lp22
F137.54688119888306
aF158.56683897972107
aF123.9965078830719
aF160.79909801483154
aF119.75366687774658
aF178.78805589675903
aF144.0578751564026
aF150.69436597824097
aF131.01283407211304
aF140.11613607406616
asg6
(lp23
I10
aI9
aI8
aI14
aI5
aI12
aI13
aI11
aI11
aI13
asa(dp24
g2
(lp25
I441
aI421
aI555
aI501
aI477
aI531
aI535
aI485
aI501
aI469
asg4
(lp26
F140.61405396461487
aF164.58302116394043
aF161.529639005661
aF143.09607791900635
aF148.49699687957764
aF157.04440999031067
aF148.31798696517944
aF185.98270797729492
aF107.53571796417236
aF111.33930015563965
asg6
(lp27
I12
aI13
aI14
aI8
aI13
aI14
aI14
aI12
aI14
aI10
asa(dp28
g2
(lp29
I599
aI473
aI445
aI389
aI519
aI415
aI453
aI477
aI407
aI441
asg4
(lp30
F124.94804096221924
aF87.28702092170715
aF95.55799889564514
aF70.27980589866638
aF94.91149806976318
aF65.83214712142944
aF102.67853808403015
aF79.1939799785614
aF97.37359118461609
aF82.47560691833496
asg6
(lp31
I13
aI11
aI4
aI7
aI7
aI14
aI9
aI13
aI14
aI13
asa(dp32
g2
(lp33
I475
aI443
aI507
aI383
aI495
aI371
aI401
aI451
aI477
aI421
asg4
(lp34
F93.21428918838501
aF84.7983341217041
aF80.71673488616943
aF79.01388692855835
aF94.10098099708557
aF81.85534906387329
aF69.09446096420288
aF84.62248992919922
aF92.76351594924927
aF94.59913301467896
asg6
(lp35
I14
aI10
aI13
aI13
aI13
aI11
aI14
aI14
aI11
aI12
asa(dp36
g2
(lp37
I575
aI425
aI529
aI369
aI479
aI425
aI529
aI397
aI489
aI407
asg4
(lp38
F86.61224818229675
aF66.26542711257935
aF84.02550196647644
aF97.94650793075562
aF79.12281203269958
aF90.86780095100403
aF90.42060708999634
aF98.76726198196411
aF89.73469090461731
aF74.83359909057617
asg6
(lp39
I9
aI10
aI3
aI14
aI13
aI12
aI7
aI8
aI11
aI9
asa(dp40
g2
(lp41
I435
aI387
aI417
aI471
aI387
aI395
aI405
aI535
aI451
aI421
asg4
(lp42
F76.3429479598999
aF83.17179703712463
aF88.10864686965942
aF92.08285093307495
aF77.31445097923279
aF85.39670395851135
aF73.70560789108276
aF77.17071318626404
aF143.26460695266724
aF111.53501105308533
asg6
(lp43
I13
aI10
aI9
aI8
aI13
aI14
aI12
aI5
aI13
aI14
asa(dp44
g2
(lp45
I415
aI515
aI433
aI497
aI475
aI545
aI363
aI365
aI469
aI441
asg4
(lp46
F146.7234480381012
aF170.12020993232727
aF146.65994596481323
aF135.1014289855957
aF145.89709997177124
aF165.7283229827881
aF99.11310720443726
aF119.01320815086365
aF139.68678212165833
aF103.24797487258911
asg6
(lp47
I12
aI7
aI12
aI14
aI13
aI14
aI14
aI13
aI14
aI3
asa(dp48
g2
(lp49
I417
aI539
aI509
aI437
aI489
aI325
aI335
aI383
aI615
aI325
asg4
(lp50
F97.68886208534241
aF138.9800591468811
aF149.6604940891266
aF116.94145107269287
aF135.9813997745514
aF108.8979799747467
aF126.90268111228943
aF106.76340007781982
aF170.63751482963562
aF96.63305997848511
asg6
(lp51
I14
aI8
aI11
aI14
aI8
aI13
aI14
aI13
aI13
aI13
asa(dp52
g2
(lp53
I355
aI349
aI379
aI399
aI383
aI403
aI357
aI641
aI435
aI357
asg4
(lp54
F133.7699818611145
aF112.16559290885925
aF108.15927696228027
aF88.57004022598267
aF121.61201095581055
aF113.59598994255066
aF136.60419297218323
aF114.26394391059875
aF135.1343560218811
aF95.13062906265259
asg6
(lp55
I14
aI14
aI13
aI14
aI13
aI9
aI12
aI13
aI14
aI13
asa.