(lp0
(dp1
S'best_trail'
p2
(lp3
I44
aI38
aI44
aI38
aI44
aI44
aI38
aI38
aI42
aI44
aI44
aI38
aI44
aI44
aI42
aI44
aI38
aI38
aI44
aI38
asS'running_time'
p4
(lp5
F5.959720849990845
aF5.414180040359497
aF5.565954923629761
aF5.3574559688568115
aF6.176666975021362
aF4.353858947753906
aF4.89898419380188
aF6.22278904914856
aF5.2174232006073
aF4.752515077590942
aF4.290317058563232
aF5.495584964752197
aF4.974462032318115
aF5.753453016281128
aF4.5583860874176025
aF4.960505962371826
aF5.492602109909058
aF5.110166788101196
aF4.9871439933776855
aF5.173897981643677
asS'best_at_iteration'
p6
(lp7
I7
aI4
aI6
aI10
aI10
aI0
aI0
aI2
aI0
aI11
aI2
aI11
aI7
aI4
aI10
aI2
aI5
aI11
aI3
aI3
asa(dp8
g2
(lp9
I38
aI44
aI50
aI42
aI38
aI44
aI44
aI38
aI38
aI38
aI38
aI38
aI38
aI38
aI38
aI38
aI42
aI44
aI44
aI44
asg4
(lp10
F5.584887981414795
aF5.34965705871582
aF5.1373209953308105
aF6.142772912979126
aF5.238776922225952
aF4.6234290599823
aF5.534443140029907
aF5.334129095077515
aF5.996830940246582
aF6.335188865661621
aF6.198141813278198
aF5.377894163131714
aF5.405311822891235
aF5.407821893692017
aF5.115890026092529
aF6.177973985671997
aF5.736729860305786
aF5.622215986251831
aF5.358777046203613
aF5.162797927856445
asg6
(lp11
I9
aI4
aI4
aI8
aI2
aI5
aI0
aI9
aI7
aI1
aI5
aI10
aI2
aI14
aI13
aI6
aI10
aI4
aI5
aI2
asa(dp12
g2
(lp13
I44
aI40
aI42
aI38
aI50
aI44
aI46
aI44
aI38
aI44
aI38
aI42
aI44
aI40
aI46
aI38
aI38
aI48
aI44
aI38
asg4
(lp14
F5.774914979934692
aF5.200538873672485
aF4.728463172912598
aF4.790630102157593
aF5.482776880264282
aF5.637060165405273
aF5.26555609703064
aF4.903110027313232
aF4.803611993789673
aF6.573064088821411
aF5.1536688804626465
aF5.16471791267395
aF5.928362846374512
aF4.808516979217529
aF4.402498960494995
aF5.577445983886719
aF5.391068935394287
aF5.746588945388794
aF5.856838226318359
aF5.305293083190918
asg6
(lp15
I0
aI6
aI14
aI0
aI10
aI3
aI9
aI1
aI11
aI3
aI14
aI5
aI1
aI13
aI0
aI8
aI0
aI4
aI0
aI4
asa(dp16
g2
(lp17
I38
aI38
aI44
aI48
aI44
aI38
aI44
aI42
aI44
aI38
aI44
aI44
aI38
aI38
aI38
aI44
aI40
aI44
aI44
aI44
asg4
(lp18
F5.324878931045532
aF6.326233148574829
aF5.033735990524292
aF5.069947004318237
aF5.539956092834473
aF5.400431871414185
aF4.98461389541626
aF5.206403970718384
aF5.479941129684448
aF5.0079240798950195
aF5.301936149597168
aF5.419435977935791
aF5.589016914367676
aF5.294490098953247
aF5.3546130657196045
aF5.171430826187134
aF5.078223943710327
aF5.135432004928589
aF5.279665946960449
aF5.740469932556152
asg6
(lp19
I10
aI14
aI7
aI1
aI10
aI10
aI13
aI5
aI4
aI1
aI3
aI4
aI13
aI3
aI2
aI5
aI11
aI0
aI2
aI1
asa(dp20
g2
(lp21
I42
aI38
aI44
aI40
aI44
aI38
aI44
aI42
aI38
aI40
aI44
aI46
aI44
aI44
aI38
aI44
aI38
aI38
aI44
aI40
asg4
(lp22
F6.000058889389038
aF5.527576923370361
aF5.231169939041138
aF5.673026084899902
aF4.68360710144043
aF5.6464760303497314
aF5.539777994155884
aF5.784303903579712
aF5.171932935714722
aF5.185626029968262
aF5.238776922225952
aF5.2017810344696045
aF5.089379072189331
aF5.274592161178589
aF5.603508949279785
aF5.582240104675293
aF4.825139045715332
aF6.325210809707642
aF5.337733030319214
aF5.392797946929932
asg6
(lp23
I4
aI8
aI14
aI3
aI8
aI2
aI0
aI0
aI10
aI1
aI0
aI6
aI2
aI0
aI6
aI4
aI12
aI13
aI4
aI3
asa(dp24
g2
(lp25
I44
aI44
aI38
aI38
aI38
aI38
aI40
aI38
aI44
aI38
aI40
aI38
aI44
aI38
aI44
aI38
aI46
aI44
aI38
aI38
asg4
(lp26
F6.88248085975647
aF5.663179874420166
aF5.571055889129639
aF5.126458168029785
aF6.037755012512207
aF5.584224224090576
aF4.6276140213012695
aF5.527868032455444
aF5.171766996383667
aF5.1140570640563965
aF4.97893214225769
aF5.315245866775513
aF5.154452800750732
aF4.662767171859741
aF5.483124017715454
aF5.512495040893555
aF5.517964839935303
aF4.94920802116394
aF5.009530782699585
aF4.9925150871276855
asg6
(lp27
I5
aI2
aI4
aI0
aI8
aI4
aI4
aI6
aI0
aI7
aI7
aI13
aI3
aI7
aI4
aI11
aI7
aI4
aI3
aI6
asa(dp28
g2
(lp29
I44
aI44
aI38
aI38
aI42
aI38
aI42
aI46
aI44
aI38
aI38
aI44
aI38
aI38
aI44
aI38
aI38
aI40
aI38
aI38
asg4
(lp30
F5.8303611278533936
aF5.114912033081055
aF5.085220098495483
aF6.713940143585205
aF5.608751058578491
aF4.90717077255249
aF5.700064182281494
aF5.27203893661499
aF4.938905954360962
aF5.234848976135254
aF5.408652067184448
aF5.162692070007324
aF5.367727041244507
aF4.895381212234497
aF5.170945167541504
aF5.502340793609619
aF5.604191064834595
aF5.906695127487183
aF6.208305835723877
aF4.890739917755127
asg6
(lp31
I4
aI7
aI0
aI8
aI2
aI1
aI13
aI8
aI0
aI7
aI0
aI2
aI9
aI11
aI1
aI5
aI10
aI14
aI13
aI6
asa(dp32
g2
(lp33
I38
aI38
aI38
aI50
aI38
aI38
aI50
aI44
aI38
aI38
aI42
aI38
aI38
aI44
aI38
aI42
aI44
aI44
aI38
aI44
asg4
(lp34
F5.786814212799072
aF6.7883381843566895
aF4.877652883529663
aF5.459080934524536
aF4.592997074127197
aF4.920728921890259
aF5.954008102416992
aF5.108635902404785
aF5.3885698318481445
aF5.45219612121582
aF5.004334926605225
aF5.431743860244751
aF5.296175956726074
aF5.673346996307373
aF4.864156007766724
aF5.705981016159058
aF5.542172908782959
aF5.428236961364746
aF5.077934980392456
aF5.753602027893066
asg6
(lp35
I6
aI1
aI7
aI1
aI10
aI10
aI0
aI8
aI1
aI8
aI6
aI10
aI5
aI5
aI9
aI5
aI1
aI9
aI1
aI0
asa(dp36
g2
(lp37
I44
aI38
aI38
aI38
aI44
aI46
aI38
aI38
aI38
aI44
aI38
aI38
aI44
aI40
aI38
aI38
aI38
aI44
aI44
aI38
asg4
(lp38
F5.453094959259033
aF5.189320087432861
aF4.958679914474487
aF4.740968942642212
aF5.772531032562256
aF6.080151081085205
aF5.381860017776489
aF4.468220949172974
aF4.969592809677124
aF4.765868902206421
aF5.988340854644775
aF5.128659009933472
aF5.235532999038696
aF4.581996202468872
aF5.599023103713989
aF5.470607042312622
aF5.074500799179077
aF5.130941152572632
aF4.784634113311768
aF6.1135218143463135
asg6
(lp39
I8
aI10
aI5
aI11
aI3
aI4
aI9
aI8
aI0
aI2
aI3
aI3
aI12
aI9
aI6
aI9
aI10
aI6
aI7
aI4
asa(dp40
g2
(lp41
I44
aI38
aI40
aI44
aI44
aI44
aI38
aI38
aI44
aI44
aI38
aI44
aI38
aI38
aI44
aI38
aI38
aI38
aI44
aI46
asg4
(lp42
F4.678538084030151
aF4.91352391242981
aF5.110373020172119
aF4.3814380168914795
aF5.209275007247925
aF6.34213399887085
aF5.255316972732544
aF4.875529050827026
aF4.4527928829193115
aF5.593032121658325
aF5.3654680252075195
aF5.0124030113220215
aF5.366914987564087
aF5.094835042953491
aF5.733305215835571
aF5.0197529792785645
aF5.2422261238098145
aF5.32520318031311
aF5.960479974746704
aF5.125021934509277
asg6
(lp43
I1
aI12
aI3
aI4
aI14
aI5
aI9
aI1
aI1
aI0
aI5
aI3
aI1
aI8
aI3
aI3
aI1
aI11
aI0
aI9
asa(dp44
g2
(lp45
I38
aI44
aI44
aI38
aI38
aI38
aI44
aI38
aI44
aI44
aI46
aI38
aI38
aI38
aI38
aI40
aI44
aI44
aI44
aI38
asg4
(lp46
F5.591947078704834
aF4.980642080307007
aF5.942903995513916
aF5.587851047515869
aF5.2132439613342285
aF5.922521114349365
aF5.837789058685303
aF4.739477872848511
aF4.818099021911621
aF5.470733880996704
aF5.355211019515991
aF5.140317916870117
aF5.2384560108184814
aF5.802608966827393
aF5.155806064605713
aF4.7471699714660645
aF5.421388149261475
aF4.896481037139893
aF5.368772029876709
aF5.918849229812622
asg6
(lp47
I2
aI1
aI7
aI10
aI2
aI14
aI3
aI6
aI0
aI7
aI11
aI1
aI4
aI8
aI3
aI9
aI10
aI6
aI11
aI14
asa(dp48
g2
(lp49
I44
aI44
aI38
aI44
aI42
aI44
aI44
aI38
aI46
aI42
aI44
aI38
aI44
aI40
aI44
aI40
aI48
aI44
aI44
aI46
asg4
(lp50
F5.436747074127197
aF4.75992488861084
aF5.051390886306763
aF5.420171022415161
aF5.675276041030884
aF5.114496946334839
aF5.3691840171813965
aF5.035804033279419
aF5.759020090103149
aF5.893491983413696
aF4.876338958740234
aF4.777266979217529
aF5.4062418937683105
aF4.863423109054565
aF4.371044874191284
aF5.967367887496948
aF5.376585960388184
aF5.102223873138428
aF5.083877801895142
aF6.090270042419434
asg6
(lp51
I5
aI14
aI1
aI7
aI13
aI2
aI5
aI9
aI0
aI0
aI3
aI13
aI14
aI4
aI0
aI11
aI4
aI5
aI6
aI1
asa(dp52
g2
(lp53
I38
aI38
aI38
aI38
aI44
aI38
aI44
aI44
aI44
aI46
aI44
aI38
aI38
aI44
aI44
aI42
aI40
aI44
aI38
aI44
asg4
(lp54
F4.581495046615601
aF5.489455938339233
aF5.095256090164185
aF5.207294940948486
aF5.22228479385376
aF5.4634599685668945
aF4.694991827011108
aF5.472599983215332
aF5.087012052536011
aF5.032999038696289
aF4.291988134384155
aF5.348631858825684
aF6.024651050567627
aF4.601761817932129
aF5.621540069580078
aF4.766304969787598
aF5.384791851043701
aF5.350319862365723
aF6.176065921783447
aF5.808701992034912
asg6
(lp55
I6
aI12
aI4
aI1
aI3
aI6
aI4
aI6
aI9
aI0
aI0
aI12
aI1
aI4
aI0
aI11
aI6
aI1
aI0
aI2
asa(dp56
g2
(lp57
I44
aI38
aI42
aI40
aI42
aI38
aI38
aI38
aI44
aI44
aI44
aI44
aI38
aI44
aI44
aI38
aI46
aI38
aI44
aI42
asg4
(lp58
F5.265117168426514
aF5.412377119064331
aF6.219390869140625
aF5.359499931335449
aF5.572134017944336
aF5.905717134475708
aF5.107934951782227
aF5.605999946594238
aF5.04047703742981
aF4.919197082519531
aF5.504228115081787
aF5.490706205368042
aF5.819123029708862
aF5.673079013824463
aF6.039083003997803
aF5.787038087844849
aF5.597310781478882
aF5.5913801193237305
aF5.083204030990601
aF5.3129401206970215
asg6
(lp59
I2
aI2
aI0
aI4
aI0
aI2
aI7
aI2
aI7
aI2
aI6
aI2
aI2
aI2
aI1
aI4
aI3
aI0
aI6
aI3
asa(dp60
g2
(lp61
I46
aI44
aI44
aI38
aI38
aI42
aI44
aI38
aI38
aI44
aI38
aI44
aI38
aI38
aI38
aI40
aI44
aI44
aI38
aI40
asg4
(lp62
F5.558298110961914
aF4.745093107223511
aF5.2378151416778564
aF4.869005918502808
aF4.880272150039673
aF5.066449165344238
aF5.693986892700195
aF6.68196702003479
aF5.148297071456909
aF5.613796949386597
aF4.978879928588867
aF5.154930114746094
aF5.428858041763306
aF5.18684196472168
aF5.205804109573364
aF5.342513084411621
aF5.234628200531006
aF5.844603061676025
aF4.853320121765137
aF5.422682046890259
asg6
(lp63
I6
aI4
aI3
aI14
aI11
aI9
aI7
aI13
aI4
aI2
aI2
aI6
aI3
aI12
aI12
aI2
aI9
aI4
aI5
aI11
asa(dp64
g2
(lp65
I38
aI44
aI38
aI38
aI42
aI42
aI38
aI38
aI44
aI44
aI44
aI38
aI38
aI44
aI38
aI38
aI38
aI38
aI46
aI44
asg4
(lp66
F5.124790191650391
aF5.309301137924194
aF4.888942003250122
aF5.52276611328125
aF5.208725929260254
aF5.254475116729736
aF4.620508909225464
aF5.4486260414123535
aF5.120090961456299
aF4.99488091468811
aF5.966389894485474
aF4.957903861999512
aF4.371486186981201
aF5.816277980804443
aF5.393181085586548
aF5.4755518436431885
aF5.821751117706299
aF5.034322023391724
aF6.197700023651123
aF4.378007888793945
asg6
(lp67
I12
aI0
aI1
aI5
aI10
aI12
aI6
aI7
aI9
aI3
aI5
aI2
aI10
aI7
aI10
aI8
aI10
aI11
aI1
aI5
asa(dp68
g2
(lp69
I44
aI44
aI38
aI38
aI44
aI40
aI46
aI46
aI44
aI38
aI44
aI38
aI50
aI38
aI38
aI40
aI42
aI38
aI40
aI44
asg4
(lp70
F5.193665981292725
aF5.60016393661499
aF5.388485908508301
aF5.429136037826538
aF5.052181005477905
aF5.586872100830078
aF5.722277879714966
aF5.460263013839722
aF6.125230073928833
aF5.49196195602417
aF4.755171060562134
aF4.837874889373779
aF5.18169903755188
aF4.77353310585022
aF6.090039014816284
aF6.202291965484619
aF5.747176170349121
aF5.079204082489014
aF5.433751106262207
aF5.360423803329468
asg6
(lp71
I11
aI6
aI12
aI10
aI4
aI6
aI6
aI13
aI12
aI10
aI4
aI14
aI0
aI0
aI12
aI1
aI9
aI0
aI7
aI11
asa(dp72
g2
(lp73
I48
aI44
aI44
aI38
aI44
aI46
aI44
aI44
aI38
aI38
aI44
aI44
aI38
aI38
aI38
aI38
aI44
aI44
aI38
aI38
asg4
(lp74
F5.204411029815674
aF5.5568320751190186
aF4.9905149936676025
aF5.607378005981445
aF5.320279121398926
aF5.012176990509033
aF5.427897930145264
aF6.022481918334961
aF4.971560955047607
aF5.178765058517456
aF4.83959698677063
aF5.159646034240723
aF5.295460939407349
aF5.654352188110352
aF5.770303964614868
aF5.095886945724487
aF5.446268796920776
aF6.500003099441528
aF5.066903114318848
aF4.970963001251221
asg6
(lp75
I1
aI2
aI2
aI11
aI13
aI5
aI9
aI5
aI9
aI10
aI0
aI3
aI7
aI1
aI3
aI10
aI8
aI5
aI10
aI12
asa(dp76
g2
(lp77
I44
aI44
aI38
aI44
aI40
aI38
aI38
aI44
aI44
aI50
aI44
aI44
aI44
aI40
aI44
aI38
aI38
aI40
aI44
aI44
asg4
(lp78
F5.552487134933472
aF5.207552194595337
aF5.1859290599823
aF5.149810075759888
aF5.2835400104522705
aF4.701371908187866
aF4.8674609661102295
aF4.294302940368652
aF6.459728956222534
aF5.919501066207886
aF5.9042627811431885
aF5.723737001419067
aF4.819240093231201
aF5.986333131790161
aF5.2661919593811035
aF5.3679869174957275
aF4.792107105255127
aF5.561816930770874
aF5.362504005432129
aF5.199498176574707
asg6
(lp79
I5
aI4
aI14
aI9
aI11
aI11
aI14
aI13
aI14
aI1
aI1
aI3
aI3
aI12
aI10
aI4
aI0
aI13
aI2
aI5
asa(dp80
g2
(lp81
I44
aI50
aI42
aI44
aI38
aI42
aI38
aI38
aI44
aI44
aI44
aI38
aI44
aI44
aI40
aI44
aI48
aI44
aI38
aI38
asg4
(lp82
F5.370737075805664
aF5.538542032241821
aF4.5518739223480225
aF5.701807975769043
aF4.956753969192505
aF4.895817995071411
aF4.662607908248901
aF4.995436906814575
aF5.483882904052734
aF5.450467109680176
aF4.5820229053497314
aF4.683010101318359
aF5.075756788253784
aF5.051769971847534
aF4.996558904647827
aF5.696582794189453
aF4.56364893913269
aF5.781873941421509
aF5.651669979095459
aF5.777451992034912
asg6
(lp83
I1
aI2
aI9
aI4
aI0
aI10
aI10
aI5
aI9
aI8
aI0
aI6
aI0
aI10
aI9
aI3
aI7
aI1
aI8
aI3
asa(dp84
g2
(lp85
I38
aI40
aI44
aI44
aI48
aI50
aI38
aI38
aI44
aI42
aI38
aI38
aI38
aI44
aI44
aI46
aI38
aI44
aI44
aI40
asg4
(lp86
F4.64453387260437
aF5.625092029571533
aF5.179152965545654
aF5.741940975189209
aF5.779458045959473
aF4.850823163986206
aF5.762950897216797
aF4.985287189483643
aF5.523941993713379
aF4.501230001449585
aF4.785546064376831
aF5.795135974884033
aF6.563346862792969
aF5.164474964141846
aF4.745434045791626
aF5.28577995300293
aF5.777326822280884
aF5.3451220989227295
aF5.324254035949707
aF4.811921834945679
asg6
(lp87
I2
aI4
aI4
aI4
aI1
aI9
aI4
aI6
aI9
aI4
aI0
aI5
aI13
aI5
aI4
aI8
aI0
aI2
aI2
aI10
asa(dp88
g2
(lp89
I44
aI38
aI44
aI38
aI40
aI40
aI40
aI44
aI44
aI38
aI40
aI40
aI42
aI44
aI46
aI44
aI42
aI44
aI38
aI38
asg4
(lp90
F5.511630058288574
aF5.29301905632019
aF5.962586879730225
aF4.539928197860718
aF5.482436180114746
aF5.591135025024414
aF4.983346939086914
aF5.3835129737854
aF6.395654201507568
aF5.410247802734375
aF5.5130369663238525
aF5.658615827560425
aF5.0985589027404785
aF5.056926965713501
aF5.1629719734191895
aF5.285766124725342
aF5.1842710971832275
aF5.8020219802856445
aF5.971794843673706
aF5.614358186721802
asg6
(lp91
I8
aI3
aI1
aI12
aI11
aI6
aI3
aI1
aI6
aI4
aI0
aI12
aI3
aI14
aI2
aI11
aI2
aI5
aI6
aI7
asa.