(lp0
(dp1
S'best_trail'
p2
(lp3
I585
aI365
aI517
aI833
aI355
aI577
aI413
aI381
aI327
aI413
aI267
aI357
aI809
aI341
aI383
aI539
aI285
aI571
aI445
aI247
asS'running_time'
p4
(lp5
F15.257323980331421
aF12.983321905136108
aF12.462158918380737
aF14.154618978500366
aF11.153442859649658
aF11.66119909286499
aF12.450829982757568
aF13.166424036026001
aF13.159467935562134
aF14.49559211730957
aF12.35246205329895
aF10.982024908065796
aF13.471877098083496
aF11.469613075256348
aF9.66435194015503
aF13.658751964569092
aF12.490256071090698
aF10.951497793197632
aF13.456805229187012
aF11.998563051223755
asS'best_at_iteration'
p6
(lp7
I7
aI14
aI11
aI4
aI5
aI13
aI13
aI14
aI14
aI9
aI10
aI12
aI0
aI11
aI9
aI5
aI2
aI4
aI12
aI13
asa(dp8
g2
(lp9
I245
aI313
aI377
aI355
aI353
aI407
aI273
aI333
aI259
aI663
aI315
aI327
aI457
aI233
aI221
aI341
aI229
aI391
aI259
aI323
asg4
(lp10
F20.24440908432007
aF15.703681945800781
aF16.635287046432495
aF19.664824962615967
aF18.140067100524902
aF17.720391988754272
aF20.837056159973145
aF14.20379114151001
aF15.153977870941162
aF16.656283140182495
aF17.256175994873047
aF17.69952082633972
aF17.860841989517212
aF20.3053719997406
aF15.856520175933838
aF19.78764510154724
aF20.007462978363037
aF15.957826137542725
aF18.862879037857056
aF18.560538053512573
asg6
(lp11
I5
aI10
aI6
aI3
aI9
aI4
aI8
aI7
aI5
aI14
aI9
aI5
aI11
aI12
aI2
aI13
aI3
aI6
aI12
aI3
asa(dp12
g2
(lp13
I269
aI315
aI369
aI293
aI315
aI317
aI321
aI331
aI419
aI341
aI279
aI435
aI293
aI303
aI281
aI291
aI287
aI323
aI305
aI241
asg4
(lp14
F25.361760139465332
aF19.590177059173584
aF21.327699899673462
aF21.63576316833496
aF22.76557993888855
aF22.50363802909851
aF19.80008292198181
aF22.300434112548828
aF21.916828870773315
aF19.613911867141724
aF22.649317026138306
aF22.214317083358765
aF24.821115016937256
aF23.91683602333069
aF20.917073965072632
aF22.132188081741333
aF21.389883995056152
aF22.130553007125854
aF23.537947177886963
aF20.437087059020996
asg6
(lp15
I7
aI3
aI12
aI5
aI11
aI4
aI11
aI8
aI11
aI9
aI5
aI10
aI9
aI13
aI10
aI14
aI2
aI10
aI7
aI8
asa(dp16
g2
(lp17
I181
aI265
aI277
aI351
aI247
aI271
aI291
aI265
aI271
aI287
aI263
aI235
aI263
aI263
aI297
aI301
aI325
aI259
aI307
aI297
asg4
(lp18
F34.05022311210632
aF36.46119809150696
aF35.78973197937012
aF38.16452503204346
aF31.867897987365723
aF32.19820809364319
aF35.47521901130676
aF34.4001739025116
aF35.819931983947754
aF37.95561408996582
aF33.80423092842102
aF39.82944893836975
aF36.656689167022705
aF37.03825283050537
aF34.04218888282776
aF35.746511936187744
aF33.66900396347046
aF33.86753582954407
aF33.93829703330994
aF38.61007308959961
asg6
(lp19
I11
aI7
aI2
aI4
aI2
aI10
aI14
aI6
aI10
aI4
aI11
aI8
aI7
aI11
aI5
aI0
aI14
aI7
aI14
aI1
asa(dp20
g2
(lp21
I321
aI307
aI235
aI253
aI251
aI243
aI305
aI249
aI295
aI295
aI219
aI275
aI229
aI287
aI235
aI253
aI269
aI215
aI217
aI233
asg4
(lp22
F41.915282011032104
aF43.99657106399536
aF44.495721101760864
aF41.169355154037476
aF43.64575386047363
aF42.45308494567871
aF40.31877613067627
aF43.78361487388611
aF37.60581612586975
aF42.59208011627197
aF39.55266499519348
aF42.630614042282104
aF36.35721397399902
aF42.57481384277344
aF39.34292507171631
aF42.07876110076904
aF41.22178292274475
aF44.12536287307739
aF41.659960985183716
aF39.834588050842285
asg6
(lp23
I11
aI0
aI10
aI8
aI7
aI6
aI1
aI4
aI11
aI13
aI13
aI13
aI5
aI11
aI12
aI4
aI10
aI4
aI6
aI1
asa(dp24
g2
(lp25
I187
aI255
aI257
aI283
aI207
aI245
aI269
aI221
aI285
aI247
aI261
aI253
aI309
aI249
aI253
aI237
aI251
aI259
aI251
aI291
asg4
(lp26
F45.0874228477478
aF49.02398705482483
aF51.01133704185486
aF48.3010470867157
aF53.20525288581848
aF48.95504879951477
aF47.34308099746704
aF51.04149317741394
aF46.772894859313965
aF45.166136026382446
aF49.00736594200134
aF49.6576509475708
aF53.19104599952698
aF45.007019996643066
aF48.70215106010437
aF49.60067105293274
aF48.38546085357666
aF48.95674014091492
aF45.01806306838989
aF49.41240406036377
asg6
(lp27
I13
aI3
aI5
aI2
aI14
aI10
aI1
aI4
aI5
aI4
aI10
aI3
aI0
aI3
aI4
aI1
aI9
aI1
aI13
aI10
asa(dp28
g2
(lp29
I235
aI307
aI245
aI275
aI151
aI287
aI239
aI251
aI237
aI273
aI193
aI227
aI171
aI267
aI269
aI253
aI259
aI297
aI251
aI265
asg4
(lp30
F57.05835199356079
aF63.98142695426941
aF59.781494140625
aF67.50820899009705
aF63.4927761554718
aF61.29243278503418
aF63.827812910079956
aF63.400259017944336
aF65.91203999519348
aF59.68980598449707
aF59.8958580493927
aF60.28944683074951
aF59.10526514053345
aF63.80332708358765
aF60.885555028915405
aF63.9713339805603
aF63.51655912399292
aF64.79028391838074
aF64.62411999702454
aF60.68425703048706
asg6
(lp31
I7
aI10
aI4
aI4
aI12
aI13
aI11
aI11
aI1
aI3
aI9
aI9
aI1
aI13
aI8
aI11
aI7
aI10
aI11
aI7
asa(dp32
g2
(lp33
I237
aI311
aI227
aI255
aI249
aI281
aI193
aI235
aI257
aI277
aI281
aI217
aI263
aI183
aI251
aI235
aI269
aI269
aI267
aI251
asg4
(lp34
F77.95439600944519
aF85.1641411781311
aF80.31790494918823
aF82.27023005485535
aF79.87773895263672
aF75.71534204483032
aF81.53076887130737
aF73.6717209815979
aF84.06957292556763
aF82.8689169883728
aF87.9512369632721
aF79.13856601715088
aF78.25215816497803
aF82.27982902526855
aF76.67589521408081
aF73.4513828754425
aF75.38624501228333
aF84.36007404327393
aF77.0110809803009
aF85.66023421287537
asg6
(lp35
I5
aI7
aI14
aI12
aI0
aI7
aI10
aI10
aI1
aI6
aI4
aI2
aI4
aI8
aI8
aI9
aI10
aI14
aI0
aI2
asa(dp36
g2
(lp37
I225
aI241
aI267
aI255
aI239
aI261
aI239
aI273
aI215
aI243
aI211
aI257
aI243
aI233
aI241
aI239
aI225
aI269
aI255
aI251
asg4
(lp38
F107.99503207206726
aF112.08029794692993
aF113.21620988845825
aF113.12478995323181
aF111.34964084625244
aF112.95360803604126
aF108.22338104248047
aF116.08252906799316
aF106.07868194580078
aF113.42521905899048
aF111.665030002594
aF108.15895891189575
aF107.36190509796143
aF108.18990707397461
aF117.16154503822327
aF108.65052890777588
aF116.18009305000305
aF115.2377622127533
aF111.76753211021423
aF114.52819895744324
asg6
(lp39
I1
aI7
aI2
aI0
aI5
aI0
aI7
aI0
aI6
aI14
aI2
aI5
aI8
aI14
aI13
aI0
aI14
aI7
aI7
aI4
asa(dp40
g2
(lp41
I269
aI251
aI251
aI243
aI209
aI207
aI227
aI235
aI213
aI219
aI225
aI229
aI251
aI275
aI191
aI213
aI215
aI223
aI267
aI237
asg4
(lp42
F184.024405002594
aF179.18891286849976
aF177.45595502853394
aF188.47140407562256
aF175.48755717277527
aF181.7089340686798
aF178.49862718582153
aF183.05949306488037
aF184.00574803352356
aF183.25073409080505
aF179.10595202445984
aF189.1803138256073
aF183.23980498313904
aF173.66136598587036
aF179.6463360786438
aF181.82759809494019
aF178.08882689476013
aF185.58387088775635
aF186.26587390899658
aF178.6959729194641
asg6
(lp43
I1
aI7
aI3
aI1
aI12
aI9
aI7
aI11
aI8
aI7
aI3
aI10
aI9
aI7
aI7
aI14
aI10
aI3
aI6
aI4
asa(dp44
g2
(lp45
I203
aI245
aI217
aI237
aI233
aI225
aI207
aI173
aI199
aI227
aI223
aI189
aI237
aI189
aI213
aI175
aI191
aI195
aI203
aI219
asg4
(lp46
F345.5498969554901
aF355.931489944458
aF349.62099504470825
aF353.2537100315094
aF359.92558097839355
aF344.0339789390564
aF354.55655097961426
aF356.4790699481964
aF345.25771403312683
aF346.5593810081482
aF359.25836300849915
aF345.5374948978424
aF363.04896116256714
aF352.6480338573456
aF346.25908303260803
aF349.1129310131073
aF347.77272486686707
aF352.4981269836426
aF354.2423720359802
aF348.3151910305023
asg6
(lp47
I8
aI10
aI0
aI11
aI10
aI11
aI8
aI6
aI13
aI4
aI10
aI2
aI12
aI1
aI7
aI2
aI5
aI9
aI9
aI12
asa(dp48
g2
(lp49
I215
aI221
aI215
aI217
aI197
aI185
aI195
aI183
aI239
aI205
aI223
aI213
aI215
aI205
aI211
aI211
aI189
aI209
aI211
aI193
asg4
(lp50
F682.1933209896088
aF690.9854578971863
aF666.5995600223541
aF665.3510339260101
aF686.1391921043396
aF663.3241858482361
aF664.2494819164276
aF694.1773130893707
aF664.0892918109894
aF698.8484189510345
aF662.1076300144196
aF676.9301669597626
aF685.4090390205383
aF680.1722059249878
aF652.6502778530121
aF670.9279479980469
aF672.0628490447998
aF677.9031100273132
aF693.0575568675995
aF655.2285540103912
asg6
(lp51
I7
aI9
aI13
aI14
aI5
aI3
aI5
aI4
aI1
aI1
aI5
aI10
aI7
aI10
aI6
aI13
aI12
aI8
aI0
aI2
asa(dp52
g2
(lp53
I191
aI207
aI197
aI199
aI195
aI195
aI209
aI195
aI195
aI205
aI195
aI205
aI199
aI221
aI199
aI209
aI197
aI195
aI191
aI223
asg4
(lp54
F1313.5576219558716
aF1333.1332268714905
aF1347.7513298988342
aF1305.5558619499207
aF1310.7637860774994
aF1320.5758810043335
aF1322.2842469215393
aF1356.9889068603516
aF1346.565435886383
aF1330.8704569339752
aF1336.9360039234161
aF1340.030918121338
aF1320.4754469394684
aF1339.8623628616333
aF1338.6196360588074
aF1351.9125311374664
aF1351.7612209320068
aF1345.8416409492493
aF1349.3284590244293
aF1332.0980248451233
asg6
(lp55
I12
aI2
aI4
aI2
aI10
aI6
aI12
aI0
aI1
aI5
aI14
aI10
aI10
aI6
aI13
aI4
aI9
aI2
aI2
aI10
asa.