(lp0
(dp1
S'best_trail'
p2
(lp3
I243
aI259
aI249
aI233
aI271
aI289
aI259
aI233
aI255
aI231
aI233
aI251
aI241
aI237
aI241
aI239
aI263
aI241
aI229
aI253
asS'running_time'
p4
(lp5
F80.29074501991272
aF76.40926480293274
aF79.32369303703308
aF83.1405701637268
aF81.65057301521301
aF76.72511291503906
aF76.326975107193
aF74.96223998069763
aF75.79111194610596
aF74.97551107406616
aF76.36106586456299
aF75.59509897232056
aF85.91144394874573
aF77.76847386360168
aF78.93292999267578
aF80.41853904724121
aF77.54876017570496
aF80.13017702102661
aF77.84697604179382
aF79.1803150177002
asS'best_at_iteration'
p6
(lp7
I6
aI0
aI3
aI7
aI7
aI3
aI5
aI3
aI9
aI12
aI4
aI10
aI0
aI8
aI4
aI10
aI7
aI11
aI3
aI12
asa(dp8
g2
(lp9
I381
aI329
aI299
aI307
aI249
aI333
aI295
aI285
aI369
aI285
aI447
aI345
aI345
aI303
aI463
aI327
aI353
aI425
aI289
aI279
asg4
(lp10
F74.29632616043091
aF78.47565197944641
aF74.3634819984436
aF77.46028518676758
aF77.19385385513306
aF75.77051711082458
aF80.06910109519958
aF81.47852206230164
aF73.12926602363586
aF79.068430185318
aF77.16318202018738
aF79.88421201705933
aF75.06230401992798
aF76.67062783241272
aF75.66961789131165
aF73.38684606552124
aF80.47006893157959
aF79.01806211471558
aF79.1771149635315
aF79.47987699508667
asg6
(lp11
I2
aI9
aI3
aI7
aI9
aI10
aI7
aI12
aI11
aI13
aI11
aI5
aI4
aI6
aI8
aI8
aI9
aI8
aI12
aI0
asa.