(lp0
(dp1
S'best_trail'
p2
(lp3
I213
aI229
aI271
aI285
aI287
aI265
aI247
aI217
aI203
aI207
aI247
aI261
aI267
aI263
aI199
aI265
aI275
aI255
aI187
aI231
asS'running_time'
p4
(lp5
F82.5516037940979
aF80.74856400489807
aF80.99358201026917
aF78.96542716026306
aF81.23662900924683
aF75.0744731426239
aF81.40918898582458
aF77.83856415748596
aF79.73483300209045
aF77.13272714614868
aF82.02708911895752
aF79.5353639125824
aF78.71283102035522
aF78.17602705955505
aF82.95488214492798
aF84.81088304519653
aF83.1266119480133
aF78.06697010993958
aF78.31716513633728
aF79.7563989162445
asS'best_at_iteration'
p6
(lp7
I1
aI13
aI4
aI10
aI13
aI13
aI13
aI10
aI0
aI3
aI6
aI5
aI13
aI1
aI14
aI2
aI4
aI13
aI3
aI13
asa(dp8
g2
(lp9
I247
aI235
aI243
aI265
aI263
aI239
aI259
aI305
aI287
aI203
aI229
aI265
aI237
aI281
aI263
aI293
aI223
aI297
aI245
aI193
asg4
(lp10
F76.53882503509521
aF75.11263298988342
aF79.32933497428894
aF74.74488711357117
aF81.10427117347717
aF80.35600304603577
aF77.71320295333862
aF78.95822978019714
aF79.57422804832458
aF76.5746169090271
aF83.70811820030212
aF75.4457619190216
aF78.65489792823792
aF78.03989696502686
aF79.6934130191803
aF81.69265103340149
aF81.47332406044006
aF75.8821280002594
aF82.6338210105896
aF80.15438199043274
asg6
(lp11
I0
aI1
aI12
aI13
aI12
aI9
aI13
aI3
aI11
aI12
aI7
aI3
aI1
aI6
aI2
aI13
aI2
aI14
aI14
aI9
asa(dp12
g2
(lp13
I221
aI275
aI255
aI263
aI257
aI253
aI245
aI233
aI261
aI207
aI227
aI245
aI249
aI217
aI257
aI237
aI271
aI267
aI237
aI201
asg4
(lp14
F77.58690595626831
aF75.09499311447144
aF76.31241106987
aF82.55987882614136
aF80.19472098350525
aF84.28424406051636
aF74.87880492210388
aF78.36420106887817
aF81.94187498092651
aF78.39920783042908
aF81.86465287208557
aF77.86642813682556
aF78.25226092338562
aF76.81334900856018
aF82.44996404647827
aF74.84694600105286
aF82.32591104507446
aF76.03536009788513
aF80.277596950531
aF81.19419312477112
asg6
(lp15
I1
aI14
aI0
aI1
aI7
aI5
aI5
aI7
aI7
aI4
aI3
aI13
aI5
aI13
aI11
aI4
aI13
aI8
aI8
aI1
asa(dp16
g2
(lp17
I251
aI233
aI199
aI245
aI267
aI249
aI237
aI199
aI229
aI263
aI217
aI255
aI197
aI241
aI293
aI255
aI253
aI231
aI255
aI211
asg4
(lp18
F80.44873189926147
aF75.46247696876526
aF71.71166205406189
aF77.95644402503967
aF73.27923893928528
aF77.17565894126892
aF78.18418908119202
aF83.20522809028625
aF74.67375707626343
aF77.16038298606873
aF75.88128519058228
aF82.6102979183197
aF75.5509979724884
aF81.98859095573425
aF84.98529005050659
aF83.34217500686646
aF75.1094298362732
aF79.13550019264221
aF77.64008593559265
aF80.32927393913269
asg6
(lp19
I10
aI8
aI1
aI1
aI8
aI0
aI4
aI14
aI6
aI8
aI6
aI13
aI0
aI5
aI14
aI4
aI4
aI4
aI12
aI0
asa(dp20
g2
(lp21
I227
aI267
aI245
aI277
aI211
aI221
aI269
aI295
aI249
aI227
aI231
aI217
aI223
aI297
aI275
aI195
aI245
aI221
aI289
aI269
asg4
(lp22
F79.24624800682068
aF83.58253693580627
aF73.835364818573
aF80.54747009277344
aF80.21833801269531
aF81.72515082359314
aF79.8278489112854
aF75.74484491348267
aF85.79470705986023
aF79.09816694259644
aF75.66170907020569
aF78.17110109329224
aF74.9145188331604
aF80.1689920425415
aF79.63108205795288
aF79.34860706329346
aF79.45343589782715
aF79.19755482673645
aF78.36624884605408
aF81.25154113769531
asg6
(lp23
I1
aI7
aI12
aI10
aI2
aI9
aI1
aI7
aI3
aI7
aI13
aI7
aI9
aI6
aI1
aI0
aI0
aI11
aI1
aI7
asa(dp24
g2
(lp25
I217
aI285
aI257
aI267
aI273
aI281
aI231
aI237
aI233
aI231
aI301
aI233
aI201
aI273
aI227
aI257
aI239
aI253
aI247
aI273
asg4
(lp26
F76.45790600776672
aF81.70568799972534
aF75.44649004936218
aF79.3069441318512
aF82.50954604148865
aF79.79902696609497
aF76.19933009147644
aF81.65579915046692
aF77.82525706291199
aF85.60104393959045
aF79.9518129825592
aF80.32213711738586
aF78.72050404548645
aF78.94021201133728
aF74.14181804656982
aF77.81882119178772
aF78.11260795593262
aF82.05635905265808
aF78.26924800872803
aF75.37292313575745
asg6
(lp27
I14
aI1
aI1
aI14
aI0
aI3
aI3
aI9
aI7
aI12
aI1
aI1
aI2
aI9
aI11
aI3
aI1
aI5
aI4
aI5
asa(dp28
g2
(lp29
I213
aI281
aI207
aI235
aI221
aI229
aI235
aI213
aI243
aI183
aI289
aI235
aI263
aI253
aI271
aI229
aI255
aI273
aI195
aI279
asg4
(lp30
F77.48043489456177
aF81.41734290122986
aF83.07050800323486
aF79.85488200187683
aF77.07106280326843
aF74.78088188171387
aF78.77569198608398
aF82.77927708625793
aF76.37595891952515
aF81.47036910057068
aF78.85028004646301
aF78.02636384963989
aF81.8023111820221
aF76.12696599960327
aF81.18264889717102
aF76.30352687835693
aF83.78200006484985
aF76.02595782279968
aF80.59337782859802
aF75.49834680557251
asg6
(lp31
I0
aI6
aI10
aI13
aI8
aI14
aI10
aI5
aI12
aI14
aI4
aI6
aI5
aI2
aI1
aI5
aI3
aI14
aI12
aI2
asa(dp32
g2
(lp33
I281
aI273
aI237
aI275
aI197
aI249
aI221
aI231
aI257
aI259
aI267
aI235
aI247
aI217
aI249
aI231
aI273
aI241
aI229
aI257
asg4
(lp34
F79.51640605926514
aF84.36428713798523
aF84.17723894119263
aF80.06456708908081
aF77.84500193595886
aF81.52261686325073
aF81.20407199859619
aF79.82538199424744
aF79.99529790878296
aF77.13409495353699
aF84.42015194892883
aF78.71460580825806
aF75.04543995857239
aF74.63397002220154
aF79.16591310501099
aF80.84199714660645
aF79.79980206489563
aF77.85872197151184
aF81.5376181602478
aF78.87665700912476
asg6
(lp35
I9
aI14
aI1
aI14
aI10
aI11
aI2
aI0
aI7
aI9
aI5
aI12
aI14
aI0
aI8
aI11
aI8
aI8
aI2
aI3
asa(dp36
g2
(lp37
I223
aI211
aI193
aI239
aI207
aI277
aI289
aI229
aI245
aI237
aI255
aI233
aI223
aI233
aI217
aI227
aI247
aI243
aI249
aI255
asg4
(lp38
F85.48693108558655
aF75.75421380996704
aF77.35760402679443
aF80.03748416900635
aF85.93158888816833
aF73.37040185928345
aF76.37023115158081
aF82.74982595443726
aF79.63704419136047
aF74.26409006118774
aF79.64425492286682
aF82.5453429222107
aF78.627445936203
aF78.60735201835632
aF84.09595990180969
aF82.39078116416931
aF75.06256198883057
aF75.91795301437378
aF84.04644703865051
aF84.50251197814941
asg6
(lp39
I14
aI10
aI3
aI4
aI13
aI0
aI2
aI10
aI12
aI2
aI5
aI5
aI5
aI1
aI7
aI7
aI14
aI4
aI1
aI6
asa(dp40
g2
(lp41
I249
aI279
aI249
aI219
aI227
aI263
aI209
aI239
aI245
aI271
aI225
aI241
aI225
aI243
aI221
aI199
aI223
aI253
aI211
aI255
asg4
(lp42
F80.85365295410156
aF75.07749199867249
aF74.83509087562561
aF77.72254610061646
aF74.44916200637817
aF76.95954608917236
aF79.17257595062256
aF77.23968291282654
aF81.0054349899292
aF80.42332911491394
aF81.3710629940033
aF78.862300157547
aF76.12841415405273
aF77.0812349319458
aF76.85462403297424
aF81.08980298042297
aF80.8771550655365
aF79.4404718875885
aF83.38760781288147
aF83.80526089668274
asg6
(lp43
I6
aI5
aI6
aI0
aI11
aI9
aI12
aI7
aI12
aI2
aI0
aI9
aI8
aI10
aI10
aI7
aI8
aI12
aI7
aI6
asa.