(lp0
(dp1
S'best_trail'
p2
(lp3
I249
aI271
aI203
aI227
aI267
aI273
aI259
aI271
aI257
aI253
aI263
aI273
aI267
aI225
aI295
aI237
aI277
aI221
aI231
aI269
asS'running_time'
p4
(lp5
F75.3070318698883
aF78.39951300621033
aF76.77423810958862
aF76.83617401123047
aF79.7686140537262
aF83.51539301872253
aF82.41727995872498
aF79.28496503829956
aF78.61735010147095
aF82.30100393295288
aF76.27412605285645
aF79.45411396026611
aF75.53089189529419
aF72.81999111175537
aF78.46104192733765
aF78.65456795692444
aF78.90600800514221
aF80.39429903030396
aF78.08194398880005
aF81.68183207511902
asS'best_at_iteration'
p6
(lp7
I13
aI2
aI8
aI10
aI9
aI7
aI10
aI4
aI7
aI8
aI9
aI6
aI2
aI14
aI6
aI6
aI13
aI1
aI1
aI11
asa(dp8
g2
(lp9
I209
aI247
aI249
aI257
aI201
aI215
aI233
aI271
aI253
aI253
aI243
aI273
aI263
aI271
aI207
aI241
aI221
aI237
aI229
aI241
asg4
(lp10
F72.79861307144165
aF81.12785005569458
aF80.27189207077026
aF81.67257404327393
aF85.38646817207336
aF79.08509111404419
aF78.66536903381348
aF77.15858483314514
aF75.57359290122986
aF81.16538190841675
aF85.18055701255798
aF80.10200691223145
aF83.61041712760925
aF81.85262894630432
aF79.36378407478333
aF79.32893586158752
aF75.72820591926575
aF78.23273491859436
aF80.69357800483704
aF81.16608715057373
asg6
(lp11
I1
aI13
aI4
aI0
aI6
aI14
aI3
aI7
aI3
aI8
aI7
aI9
aI7
aI2
aI12
aI2
aI11
aI1
aI0
aI6
asa(dp12
g2
(lp13
I285
aI291
aI257
aI269
aI257
aI217
aI241
aI271
aI233
aI261
aI255
aI263
aI207
aI221
aI209
aI223
aI311
aI213
aI243
aI283
asg4
(lp14
F80.13550400733948
aF81.41378998756409
aF80.41816902160645
aF79.34302091598511
aF76.81335091590881
aF73.48819994926453
aF82.94702100753784
aF80.5846381187439
aF72.49869704246521
aF77.18650603294373
aF78.86648607254028
aF79.92256593704224
aF78.51062393188477
aF76.26963496208191
aF80.8044650554657
aF84.66603803634644
aF78.52193093299866
aF83.99703693389893
aF79.32217216491699
aF80.72551894187927
asg6
(lp15
I1
aI10
aI13
aI12
aI10
aI1
aI6
aI11
aI9
aI3
aI7
aI0
aI10
aI1
aI7
aI12
aI5
aI9
aI8
aI7
asa(dp16
g2
(lp17
I253
aI251
aI243
aI247
aI275
aI255
aI297
aI269
aI245
aI253
aI253
aI239
aI251
aI221
aI295
aI237
aI265
aI237
aI261
aI235
asg4
(lp18
F80.45200991630554
aF80.85170102119446
aF81.5348060131073
aF80.31104898452759
aF83.05050086975098
aF81.68587589263916
aF84.46009516716003
aF83.38354802131653
aF83.7843599319458
aF83.80274295806885
aF83.52721285820007
aF77.88690710067749
aF82.17666101455688
aF82.14632391929626
aF78.80946493148804
aF83.54530215263367
aF81.10633897781372
aF82.7602128982544
aF78.76495289802551
aF79.45137000083923
asg6
(lp19
I14
aI5
aI6
aI14
aI3
aI1
aI5
aI9
aI3
aI9
aI4
aI13
aI4
aI13
aI5
aI14
aI12
aI14
aI1
aI14
asa(dp20
g2
(lp21
I253
aI255
aI229
aI237
aI221
aI265
aI253
aI195
aI227
aI275
aI271
aI255
aI201
aI223
aI263
aI225
aI253
aI259
aI237
aI299
asg4
(lp22
F80.02300691604614
aF78.6368019580841
aF79.58496403694153
aF78.85583400726318
aF83.90088200569153
aF82.87302279472351
aF82.90101099014282
aF78.63908982276917
aF81.12476086616516
aF75.94600296020508
aF84.46187496185303
aF77.43698191642761
aF80.04317808151245
aF75.96637797355652
aF81.64833688735962
aF80.7547709941864
aF77.43569493293762
aF77.52623200416565
aF77.48623609542847
aF74.68110990524292
asg6
(lp23
I11
aI2
aI13
aI12
aI11
aI10
aI3
aI5
aI13
aI6
aI6
aI9
aI12
aI14
aI2
aI0
aI0
aI4
aI1
aI1
asa(dp24
g2
(lp25
I247
aI237
aI229
aI257
aI247
aI293
aI257
aI241
aI243
aI247
aI291
aI237
aI225
aI245
aI251
aI213
aI231
aI245
aI243
aI225
asg4
(lp26
F85.03291702270508
aF77.8269579410553
aF78.53115010261536
aF80.8767409324646
aF81.16766285896301
aF80.2493679523468
aF79.90938305854797
aF80.35622882843018
aF79.38058114051819
aF84.15673613548279
aF78.38075304031372
aF73.80486798286438
aF71.78654789924622
aF75.66443490982056
aF83.09638619422913
aF78.80237698554993
aF82.81125092506409
aF81.87661480903625
aF85.52590990066528
aF76.52681708335876
asg6
(lp27
I7
aI4
aI9
aI9
aI11
aI2
aI8
aI0
aI0
aI0
aI12
aI3
aI3
aI8
aI1
aI1
aI14
aI6
aI3
aI11
asa(dp28
g2
(lp29
I213
aI247
aI247
aI269
aI229
aI231
aI213
aI237
aI211
aI259
aI249
aI227
aI227
aI265
aI249
aI261
aI259
aI245
aI269
aI259
asg4
(lp30
F74.3823390007019
aF85.08563208580017
aF76.53830003738403
aF79.29777216911316
aF77.86569094657898
aF80.52965211868286
aF73.95496821403503
aF81.5133969783783
aF76.68147110939026
aF88.7969081401825
aF78.7937490940094
aF77.28624391555786
aF81.20928692817688
aF75.53841495513916
aF79.06749081611633
aF73.91086006164551
aF81.90760207176208
aF80.0989601612091
aF85.10651803016663
aF86.93012809753418
asg6
(lp31
I2
aI2
aI13
aI12
aI14
aI3
aI11
aI0
aI5
aI6
aI12
aI13
aI11
aI9
aI11
aI0
aI7
aI5
aI12
aI1
asa(dp32
g2
(lp33
I255
aI245
aI265
aI255
aI259
aI229
aI229
aI297
aI307
aI303
aI275
aI239
aI273
aI183
aI267
aI237
aI235
aI277
aI245
aI231
asg4
(lp34
F83.12117791175842
aF79.73359894752502
aF80.99988508224487
aF77.08485412597656
aF78.23206806182861
aF73.40802597999573
aF81.47378301620483
aF80.15108799934387
aF78.19492888450623
aF82.78339982032776
aF80.7894811630249
aF77.96469402313232
aF84.81718897819519
aF78.44710087776184
aF81.50499296188354
aF76.15741109848022
aF80.50896096229553
aF78.45209193229675
aF79.05788803100586
aF76.95573997497559
asg6
(lp35
I1
aI5
aI7
aI8
aI14
aI4
aI3
aI2
aI3
aI3
aI7
aI10
aI0
aI10
aI3
aI9
aI1
aI12
aI9
aI9
asa(dp36
g2
(lp37
I207
aI271
aI263
aI247
aI251
aI225
aI257
aI227
aI263
aI265
aI251
aI295
aI233
aI229
aI263
aI231
aI277
aI279
aI259
aI183
asg4
(lp38
F80.80824398994446
aF82.05091500282288
aF78.39243912696838
aF82.42053699493408
aF79.64003992080688
aF87.83623695373535
aF80.510568857193
aF80.70806884765625
aF80.41028904914856
aF79.51944017410278
aF75.25093913078308
aF80.61554503440857
aF77.11515688896179
aF80.47635912895203
aF79.39004802703857
aF76.74351906776428
aF82.26121401786804
aF86.99574708938599
aF79.97792887687683
aF87.51303005218506
asg6
(lp39
I13
aI14
aI9
aI13
aI2
aI11
aI5
aI2
aI7
aI10
aI3
aI10
aI11
aI13
aI0
aI10
aI14
aI7
aI9
aI10
asa(dp40
g2
(lp41
I315
aI241
aI241
aI261
aI263
aI229
aI261
aI225
aI261
aI293
aI247
aI265
aI247
aI217
aI213
aI257
aI239
aI265
aI297
aI269
asg4
(lp42
F81.54002499580383
aF79.13965511322021
aF72.8293559551239
aF79.3839099407196
aF85.88680410385132
aF79.19202303886414
aF74.2353298664093
aF74.24552083015442
aF91.63608813285828
aF83.90557193756104
aF79.78938603401184
aF73.18814492225647
aF74.88867807388306
aF76.21591711044312
aF79.33659482002258
aF82.91835594177246
aF78.79291009902954
aF78.92437887191772
aF86.11710095405579
aF79.84633708000183
asg6
(lp43
I11
aI0
aI7
aI10
aI10
aI10
aI5
aI3
aI5
aI0
aI0
aI10
aI9
aI8
aI9
aI4
aI8
aI7
aI4
aI4
asa(dp44
g2
(lp45
I279
aI237
aI267
aI215
aI205
aI257
aI267
aI229
aI255
aI251
aI287
aI211
aI255
aI275
aI263
aI259
aI231
aI291
aI259
aI271
asg4
(lp46
F82.57163906097412
aF84.9743070602417
aF79.56447577476501
aF80.790766954422
aF80.52291917800903
aF83.28950905799866
aF82.86299896240234
aF77.93362808227539
aF82.5396249294281
aF80.5567409992218
aF79.6094970703125
aF80.00017285346985
aF76.45102286338806
aF84.05497002601624
aF81.44849801063538
aF82.44477581977844
aF77.72080206871033
aF80.20685815811157
aF78.25564193725586
aF73.17668008804321
asg6
(lp47
I10
aI9
aI2
aI8
aI1
aI11
aI1
aI11
aI13
aI6
aI1
aI3
aI0
aI0
aI10
aI13
aI12
aI8
aI4
aI5
asa(dp48
g2
(lp49
I285
aI235
aI267
aI281
aI237
aI257
aI233
aI283
aI225
aI221
aI285
aI275
aI247
aI251
aI245
aI285
aI239
aI225
aI277
aI229
asg4
(lp50
F85.04286599159241
aF80.7394790649414
aF80.32603883743286
aF81.50658392906189
aF84.37289810180664
aF81.50848603248596
aF80.78202795982361
aF76.37527799606323
aF82.1990180015564
aF80.23482894897461
aF82.75365805625916
aF78.95674991607666
aF82.76076006889343
aF79.9464819431305
aF71.38739204406738
aF82.99082803726196
aF83.53702712059021
aF79.62244200706482
aF74.73180794715881
aF84.59429693222046
asg6
(lp51
I14
aI4
aI9
aI12
aI9
aI13
aI5
aI9
aI14
aI4
aI1
aI4
aI12
aI2
aI1
aI8
aI6
aI10
aI3
aI0
asa(dp52
g2
(lp53
I267
aI273
aI241
aI205
aI195
aI257
aI311
aI245
aI259
aI217
aI267
aI217
aI255
aI233
aI273
aI253
aI225
aI221
aI235
aI257
asg4
(lp54
F77.42147612571716
aF80.19742107391357
aF74.61980605125427
aF76.67478585243225
aF82.73767685890198
aF78.37822604179382
aF81.67207098007202
aF82.03488993644714
aF77.07323384284973
aF81.84562492370605
aF85.06256985664368
aF77.85835385322571
aF77.26894187927246
aF85.71709299087524
aF78.25988817214966
aF83.47865891456604
aF75.16539716720581
aF73.02573704719543
aF82.91843891143799
aF78.51577711105347
asg6
(lp55
I9
aI10
aI14
aI12
aI9
aI13
aI3
aI10
aI8
aI3
aI14
aI3
aI6
aI11
aI5
aI13
aI6
aI11
aI12
aI0
asa.