(lp0
(dp1
S'best_trail'
p2
(lp3
I917
aI917
aI1091
aI925
aI1055
aI1041
aI939
aI1051
aI871
aI959
asS'running_time'
p4
(lp5
F691.9203970432281
aF493.68889689445496
aF632.436882019043
aF679.147222995758
aF634.4929699897766
aF813.3396198749542
aF551.6889281272888
aF808.3003299236298
aF455.6439709663391
aF781.2715640068054
asS'best_at_iteration'
p6
(lp7
I14
aI14
aI12
aI12
aI13
aI4
aI13
aI11
aI10
aI14
asa(dp8
g2
(lp9
I1129
aI1185
aI1015
aI1029
aI921
aI991
aI897
aI1191
aI877
aI943
asg4
(lp10
F501.0107171535492
aF708.6357090473175
aF852.5971529483795
aF571.6489889621735
aF520.2778458595276
aF442.303838968277
aF554.7863459587097
aF572.7367141246796
aF330.4310529232025
aF728.5645680427551
asg6
(lp11
I13
aI12
aI11
aI14
aI13
aI13
aI14
aI11
aI9
aI13
asa(dp12
g2
(lp13
I965
aI915
aI949
aI941
aI997
aI1015
aI967
aI947
aI1159
aI961
asg4
(lp14
F563.5571200847626
aF717.381098985672
aF981.7110741138458
aF844.0895230770111
aF681.4460051059723
aF686.4107480049133
aF594.9544179439545
aF531.6116609573364
aF518.0523779392242
aF554.2400698661804
asg6
(lp15
I11
aI13
aI11
aI11
aI9
aI9
aI8
aI14
aI14
aI10
asa(dp16
g2
(lp17
I1173
aI929
aI1027
aI1041
aI965
aI953
aI895
aI1141
aI1137
aI967
asg4
(lp18
F710.7959930896759
aF659.1432871818542
aF614.3512141704559
aF558.3155899047852
aF564.2887010574341
aF620.40882396698
aF558.7801802158356
aF611.6532938480377
aF695.4100520610809
aF452.65393900871277
asg6
(lp19
I13
aI13
aI7
aI12
aI14
aI10
aI12
aI11
aI8
aI13
asa(dp20
g2
(lp21
I925
aI1005
aI953
aI959
aI997
aI943
aI1131
aI1095
aI1027
aI1151
asg4
(lp22
F402.7469389438629
aF607.5122270584106
aF442.1828408241272
aF591.1727149486542
aF469.6638460159302
aF698.8468809127808
aF367.515074968338
aF676.5267670154572
aF507.1150441169739
aF677.7493100166321
asg6
(lp23
I8
aI13
aI9
aI12
aI13
aI13
aI12
aI13
aI12
aI13
asa(dp24
g2
(lp25
I1009
aI1123
aI1147
aI953
aI1005
aI1049
aI959
aI995
aI947
aI1175
asg4
(lp26
F551.4218459129333
aF491.2900478839874
aF519.0517609119415
aF423.3545460700989
aF356.7730610370636
aF760.4538400173187
aF359.72955894470215
aF827.1551101207733
aF501.8276288509369
aF873.1065609455109
asg6
(lp27
I14
aI14
aI11
aI8
aI14
aI2
aI12
aI10
aI7
aI2
asa(dp28
g2
(lp29
I1091
aI1061
aI997
aI1073
aI959
aI1267
aI1127
aI947
aI1009
aI953
asg4
(lp30
F779.0760109424591
aF467.1814260482788
aF437.70139598846436
aF445.86399102211
aF404.2338628768921
aF821.0575859546661
aF483.17193508148193
aF451.3994150161743
aF587.4436180591583
aF583.7474699020386
asg6
(lp31
I13
aI10
aI12
aI12
aI7
aI14
aI7
aI7
aI13
aI13
asa(dp32
g2
(lp33
I903
aI965
aI965
aI933
aI945
aI831
aI1049
aI1163
aI1083
aI969
asg4
(lp34
F342.13053584098816
aF533.3640999794006
aF491.53270196914673
aF511.8848478794098
aF482.2804729938507
aF514.2174348831177
aF624.6688060760498
aF796.8640570640564
aF431.06085300445557
aF414.2366690635681
asg6
(lp35
I11
aI10
aI12
aI14
aI10
aI10
aI14
aI13
aI10
aI11
asa(dp36
g2
(lp37
I935
aI999
aI1049
aI967
aI1185
aI1131
aI1011
aI893
aI1057
aI969
asg4
(lp38
F793.4084448814392
aF349.949236869812
aF594.849977016449
aF663.3426558971405
aF755.6972789764404
aF797.1130790710449
aF591.4421000480652
aF375.31095910072327
aF961.6814320087433
aF416.90418100357056
asg6
(lp39
I12
aI14
aI14
aI10
aI1
aI3
aI14
aI11
aI1
aI9
asa(dp40
g2
(lp41
I885
aI875
aI1007
aI921
aI1023
aI1187
aI875
aI4667
aI1057
aI867
asg4
(lp42
F399.36918902397156
aF425.72175908088684
aF556.9480450153351
aF445.93569111824036
aF432.78618001937866
aF939.6057560443878
aF522.2800228595734
aF1249.1370940208435
aF558.0183839797974
aF343.59451603889465
asg6
(lp43
I6
aI10
aI10
aI12
aI7
aI3
aI11
aI0
aI6
aI12
asa(dp44
g2
(lp45
I1117
aI945
aI941
aI1017
aI965
aI1135
aI953
aI1033
aI975
aI1115
asg4
(lp46
F1027.2660250663757
aF479.888060092926
aF506.87885904312134
aF606.6637768745422
aF656.8632550239563
aF710.9824149608612
aF410.1806790828705
aF857.565838098526
aF374.18945384025574
aF468.37996006011963
asg6
(lp47
I3
aI13
aI12
aI10
aI9
aI2
aI12
aI1
aI8
aI2
asa(dp48
g2
(lp49
I1153
aI883
aI1149
aI1017
aI1045
aI1071
aI999
aI4057
aI1011
aI919
asg4
(lp50
F1128.3942320346832
aF524.8476810455322
aF898.3457338809967
aF657.4062371253967
aF527.4692900180817
aF1022.0881240367889
aF548.3246760368347
aF1523.9083659648895
aF660.0486879348755
aF538.7167680263519
asg6
(lp51
I1
aI8
aI5
aI14
aI12
aI8
aI7
aI0
aI6
aI14
asa.