(lp0
(dp1
S'best_trail'
p2
(lp3
I529
aI451
aI569
aI507
aI499
aI519
aI555
aI485
aI563
aI539
asS'running_time'
p4
(lp5
F166.20931601524353
aF131.54887700080872
aF151.9918909072876
aF139.47206902503967
aF155.912456035614
aF164.32513809204102
aF134.0270619392395
aF122.97953200340271
aF167.8333821296692
aF159.3756799697876
asS'best_at_iteration'
p6
(lp7
I8
aI11
aI11
aI13
aI9
aI11
aI6
aI5
aI5
aI9
asa(dp8
g2
(lp9
I715
aI1023
aI1093
aI1361
aI693
aI621
aI825
aI1699
aI1529
aI815
asg4
(lp10
F182.722314119339
aF219.500324010849
aF207.0410339832306
aF225.374018907547
aF166.75869512557983
aF178.62223196029663
aF195.80668306350708
aF231.1618299484253
aF223.0473461151123
aF147.79211115837097
asg6
(lp11
I12
aI13
aI14
aI4
aI7
aI12
aI9
aI1
aI8
aI10
asa.