(lp0
(dp1
S'best_trail'
p2
(lp3
I781
aI709
aI633
aI615
aI911
aI891
aI951
aI973
aI689
aI499
asS'running_time'
p4
(lp5
F149.94442105293274
aF131.16877102851868
aF133.7370421886444
aF136.82807207107544
aF141.47770404815674
aF136.8297119140625
aF137.25513696670532
aF131.1106538772583
aF134.3945291042328
aF135.2483241558075
asS'best_at_iteration'
p6
(lp7
I7
aI3
aI2
aI13
aI9
aI8
aI3
aI5
aI8
aI8
asa(dp8
g2
(lp9
I657
aI825
aI799
aI843
aI571
aI1009
aI849
aI845
aI1097
aI1049
asg4
(lp10
F134.5368161201477
aF136.34998106956482
aF133.8946671485901
aF102.91124701499939
aF229.4195499420166
aF225.023610830307
aF230.84447813034058
aF223.98012804985046
aF244.14769196510315
aF222.75624680519104
asg6
(lp11
I4
aI3
aI10
aI3
aI3
aI6
aI2
aI8
aI12
aI7
asa(dp12
g2
(lp13
I485
aI575
aI489
aI621
aI553
aI513
aI501
aI527
aI533
aI453
asg4
(lp14
F138.78504300117493
aF143.0348949432373
aF183.99080991744995
aF208.46359205245972
aF217.2614450454712
aF221.96813201904297
aF199.87352800369263
aF186.901358127594
aF164.20103192329407
aF195.29388618469238
asg6
(lp15
I14
aI8
aI12
aI12
aI11
aI13
aI12
aI14
aI12
aI14
asa(dp16
g2
(lp17
I515
aI657
aI389
aI587
aI413
aI609
aI493
aI523
aI579
aI481
asg4
(lp18
F122.24451684951782
aF149.36394882202148
aF79.65194201469421
aF124.27725291252136
aF167.1456549167633
aF138.94669389724731
aF149.64803099632263
aF159.87840604782104
aF134.27203178405762
aF118.45266199111938
asg6
(lp19
I7
aI6
aI5
aI8
aI9
aI14
aI7
aI6
aI6
aI8
asa(dp20
g2
(lp21
I489
aI605
aI541
aI497
aI475
aI545
aI451
aI441
aI449
aI375
asg4
(lp22
F121.94489407539368
aF153.2681908607483
aF139.43026399612427
aF121.77261090278625
aF103.62593197822571
aF100.25785803794861
aF78.48754096031189
aF92.82935094833374
aF84.85207796096802
aF97.04988408088684
asg6
(lp23
I7
aI9
aI10
aI10
aI11
aI9
aI9
aI9
aI11
aI10
asa(dp24
g2
(lp25
I461
aI603
aI381
aI557
aI553
aI555
aI525
aI577
aI483
aI471
asg4
(lp26
F76.57049489021301
aF107.2885091304779
aF81.10669708251953
aF90.12103486061096
aF95.25685000419617
aF89.39840817451477
aF102.72807097434998
aF151.58881521224976
aF160.86409306526184
aF100.99424314498901
asg6
(lp27
I10
aI4
aI13
aI14
aI13
aI4
aI9
aI3
aI6
aI10
asa(dp28
g2
(lp29
I561
aI495
aI481
aI409
aI585
aI559
aI589
aI547
aI517
aI455
asg4
(lp30
F79.25829792022705
aF85.26423287391663
aF73.30022501945496
aF78.65593194961548
aF122.83501696586609
aF142.29620003700256
aF150.15251207351685
aF79.40426898002625
aF137.68721103668213
aF139.95971298217773
asg6
(lp31
I10
aI12
aI5
aI13
aI7
aI6
aI6
aI10
aI11
aI13
asa(dp32
g2
(lp33
I521
aI423
aI489
aI769
aI509
aI543
aI543
aI455
aI461
aI499
asg4
(lp34
F149.75392889976501
aF155.01538705825806
aF132.37748789787292
aF138.2622640132904
aF133.38360404968262
aF149.0495960712433
aF151.43653297424316
aF123.94327092170715
aF137.9461579322815
aF166.51049089431763
asg6
(lp35
I5
aI8
aI10
aI7
aI9
aI13
aI13
aI14
aI14
aI14
asa.