(lp0
(dp1
S'best_trail'
p2
(lp3
I2067
aI757
aI761
aI801
aI2119
aI1529
aI2811
aI1019
aI2057
aI1681
asS'running_time'
p4
(lp5
F11.353482961654663
aF15.540152072906494
aF17.572854042053223
aF12.78574514389038
aF13.791738033294678
aF17.968258142471313
aF15.920064926147461
aF13.06758189201355
aF13.545611143112183
aF21.60714817047119
asS'best_at_iteration'
p6
(lp7
I2
aI9
aI14
aI14
aI4
aI12
aI5
aI13
aI9
aI9
asa(dp8
g2
(lp9
I1221
aI649
aI691
aI1445
aI479
aI1685
aI1355
aI945
aI671
aI809
asg4
(lp10
F24.204918146133423
aF21.61557388305664
aF27.432273864746094
aF26.444874048233032
aF16.49288320541382
aF25.82032299041748
aF18.637938022613525
aF24.84849500656128
aF28.287909984588623
aF22.12174701690674
asg6
(lp11
I2
aI14
aI13
aI12
aI11
aI3
aI13
aI5
aI8
aI12
asa(dp12
g2
(lp13
I741
aI633
aI1589
aI793
aI1889
aI605
aI769
aI769
aI1979
aI875
asg4
(lp14
F43.48177194595337
aF43.65848684310913
aF42.84143400192261
aF35.256062030792236
aF41.59237098693848
aF40.43852114677429
aF40.804368019104004
aF41.297455072402954
aF36.5918071269989
aF40.31687593460083
asg6
(lp15
I10
aI6
aI12
aI13
aI3
aI10
aI3
aI11
aI4
aI11
asa(dp16
g2
(lp17
I503
aI769
aI527
aI577
aI413
aI459
aI629
aI663
aI595
aI739
asg4
(lp18
F59.261114835739136
aF72.82649993896484
aF66.79077696800232
aF50.03025794029236
aF69.26397013664246
aF65.98130583763123
aF79.03702592849731
aF78.9634850025177
aF65.18483304977417
aF72.81326699256897
asg6
(lp19
I7
aI14
aI9
aI14
aI10
aI9
aI11
aI11
aI4
aI12
asa(dp20
g2
(lp21
I679
aI689
aI601
aI613
aI517
aI513
aI557
aI501
aI445
aI431
asg4
(lp22
F88.60431694984436
aF91.6094400882721
aF80.52823805809021
aF78.28104400634766
aF84.79996800422668
aF78.1231529712677
aF104.62749886512756
aF85.06801700592041
aF75.59330582618713
aF61.798649072647095
asg6
(lp23
I9
aI9
aI12
aI9
aI12
aI14
aI12
aI9
aI7
aI10
asa(dp24
g2
(lp25
I597
aI551
aI493
aI523
aI523
aI487
aI535
aI437
aI521
aI509
asg4
(lp26
F90.3679039478302
aF92.99053716659546
aF85.0985951423645
aF103.40710806846619
aF97.49975800514221
aF100.97993397712708
aF78.20010900497437
aF93.34386491775513
aF90.10401105880737
aF116.89598822593689
asg6
(lp27
I8
aI6
aI12
aI12
aI12
aI11
aI14
aI14
aI12
aI6
asa(dp28
g2
(lp29
I475
aI515
aI415
aI467
aI421
aI397
aI505
aI449
aI555
aI497
asg4
(lp30
F128.14373993873596
aF135.04827117919922
aF107.75742197036743
aF121.6200737953186
aF110.26684808731079
aF111.04756999015808
aF142.5579490661621
aF127.66672801971436
aF129.21285009384155
aF117.45450496673584
asg6
(lp31
I8
aI12
aI13
aI5
aI6
aI8
aI7
aI11
aI14
aI14
asa(dp32
g2
(lp33
I495
aI457
aI545
aI431
aI597
aI449
aI455
aI595
aI461
aI437
asg4
(lp34
F147.55589389801025
aF147.92001295089722
aF123.91196918487549
aF145.17599892616272
aF169.9527428150177
aF149.66608309745789
aF132.70434999465942
aF160.725026845932
aF166.7690351009369
aF153.01219201087952
asg6
(lp35
I9
aI5
aI13
aI14
aI14
aI14
aI10
aI8
aI5
aI10
asa(dp36
g2
(lp37
I385
aI581
aI423
aI545
aI419
aI417
aI451
aI417
aI399
aI475
asg4
(lp38
F204.1949281692505
aF225.95334100723267
aF227.41901397705078
aF231.97117114067078
aF197.64934515953064
aF219.58666014671326
aF180.23736810684204
aF210.68932509422302
aF193.37979412078857
aF198.68945717811584
asg6
(lp39
I8
aI11
aI11
aI12
aI12
aI11
aI11
aI11
aI5
aI11
asa(dp40
g2
(lp41
I427
aI497
aI345
aI499
aI421
aI493
aI423
aI403
aI383
aI423
asg4
(lp42
F359.3748059272766
aF350.9356429576874
aF339.0929899215698
aF363.5605499744415
aF298.7584228515625
aF365.22155499458313
aF375.28203201293945
aF359.61802196502686
aF289.22560596466064
aF347.9685640335083
asg6
(lp43
I14
aI5
aI13
aI14
aI14
aI13
aI14
aI13
aI8
aI9
asa(dp44
g2
(lp45
I365
aI389
aI393
aI453
aI435
aI453
aI367
aI341
aI389
aI367
asg4
(lp46
F583.7586920261383
aF630.3963661193848
aF557.8938992023468
aF589.5197110176086
aF662.5374238491058
aF611.6173658370972
aF611.448893070221
aF649.7195479869843
aF708.853718996048
aF540.1346969604492
asg6
(lp47
I13
aI11
aI10
aI12
aI11
aI12
aI12
aI13
aI6
aI9
asa(dp48
g2
(lp49
I497
aI335
aI429
aI373
aI369
aI429
aI395
aI349
aI371
aI359
asg4
(lp50
F1265.1618139743805
aF1198.5238389968872
aF1239.4460098743439
aF1142.042119026184
aF1183.438048839569
aF1302.0413451194763
aF1032.57160282135
aF1082.3422498703003
aF852.2359359264374
aF532.1851191520691
asg6
(lp51
I12
aI9
aI12
aI12
aI11
aI11
aI8
aI13
aI12
aI14
asa(dp52
g2
(lp53
I345
aI387
aI371
aI355
aI351
aI339
aI349
aI315
aI365
aI287
asg4
(lp54
F799.44065117836
aF921.3203649520874
aF995.890900850296
aF1232.2982189655304
aF1272.2022128105164
aF1048.8417930603027
aF1138.4537680149078
aF996.657103061676
aF1165.4564418792725
aF1383.9445221424103
asg6
(lp55
I13
aI4
aI13
aI12
aI13
aI14
aI10
aI14
aI11
aI11
asa.