(lp0
(lp1
(dp2
S'trail'
p3
(lp4
sS'length'
p5
I0
sa(dp6
ag6
ag6
ag6
ag6
ag6
ag6
ag6
ag6
ag6
ag6
ag6
ag6
ag6
ag6
ag6
ag6
ag6
aa(lp7
g6
a(dp8
g3
(lp9
sg5
I0
sa(dp10
g3
(lp11
I1
aI1
aI1
aI1
aI1
aI1
aI1
aI1
aI1
aI1
aI1
aI2
aI2
aI3
aI3
aI2
aI2
aI3
aI3
aI2
aI2
aI1
aI1
aI1
aI1
aI1
aI1
aI2
aI2
aI2
aI2
aI2
aI3
aI3
aI3
aI3
aI3
aI0
aI3
aI3
aI2
aI3
aI3
aI0
aI0
aI0
aI1
aI0
aI0
aI3
aI0
aI0
aI3
aI3
aI3
aI2
aI3
aI2
aI3
aI3
aI2
aI2
aI2
aI2
aI3
aI3
aI3
aI3
aI2
asg5
I69
sa(dp12
g3
(lp13
I3
aI3
aI3
aI2
aI2
aI1
aI1
aI1
aI1
aI1
aI0
aI1
aI1
aI1
aI0
aI0
aI3
aI0
aI3
aI3
aI3
aI3
aI3
aI3
aI3
aI3
aI2
aI3
aI2
aI2
aI2
aI2
aI2
aI2
aI1
aI2
aI1
aI1
aI0
aI1
aI0
aI1
aI1
aI1
aI1
aI2
aI1
aI1
aI1
aI1
aI1
aI0
aI0
aI0
aI0
aI0
aI0
aI0
aI0
aI0
aI3
aI3
aI3
aI3
aI3
aI3
aI3
aI3
aI3
aI3
aI3
aI3
aI3
aI3
aI3
aI2
aI2
aI2
aI2
aI2
aI2
aI2
aI2
aI2
aI2
aI2
aI2
aI2
aI2
aI2
aI1
aI1
aI1
aI1
aI1
aI2
aI2
aI3
aI3
aI3
aI3
aI3
aI2
aI2
aI1
aI1
aI1
aI1
aI1
aI2
aI2
aI3
aI3
aI3
aI3
aI3
aI2
aI2
aI1
aI1
aI1
aI1
aI1
aI2
aI2
aI3
aI3
aI3
aI3
aI3
aI2
aI2
aI1
aI1
aI1
aI1
aI1
aI2
aI2
aI3
aI3
aI3
aI3
aI3
aI2
aI2
aI2
aI1
aI1
aI1
aI1
aI1
aI2
aI2
aI3
aI3
aI2
aI2
aI1
aI1
aI1
aI2
aI1
aI1
aI2
aI2
aI3
aI3
aI3
aI2
aI3
aI3
aI0
aI3
aI0
aI3
aI3
aI2
aI2
aI2
aI1
aI2
aI1
aI1
aI1
aI1
aI1
aI1
aI1
aI1
aI1
aI1
aI1
aI2
aI2
aI2
aI2
aI3
aI3
aI0
aI3
aI0
aI3
aI3
aI2
aI3
aI2
aI2
aI2
aI1
aI1
aI1
aI1
aI2
aI2
aI3
aI3
aI3
aI3
aI3
aI3
aI3
aI0
aI3
aI3
aI2
aI2
aI2
aI2
aI2
aI2
aI2
aI2
aI1
aI2
aI2
aI2
aI2
aI1
aI2
aI2
aI2
aI1
aI1
aI1
aI2
aI2
aI1
aI2
aI1
aI1
aI1
aI0
aI1
aI2
aI1
aI0
aI0
aI0
aI0
aI0
aI0
aI1
aI1
aI0
aI0
aI0
aI1
aI0
aI1
aI1
aI0
aI0
aI0
aI3
aI0
aI0
aI0
aI0
aI0
aI0
aI0
aI1
aI1
aI1
aI0
aI0
aI1
aI1
aI0
aI1
aI0
aI0
aI1
aI0
aI1
aI2
aI1
aI2
aI1
aI0
aI1
aI0
aI1
aI1
aI0
aI1
aI1
aI0
aI3
aI0
aI1
aI1
aI0
aI0
aI1
aI2
aI1
aI1
aI1
aI1
aI1
aI2
aI2
aI2
aI1
aI2
aI1
aI0
aI0
aI1
aI2
aI1
aI1
aI2
aI1
aI1
aI0
aI1
aI1
aI1
aI2
aI3
aI3
aI2
aI2
aI2
aI2
aI3
aI3
aI2
aI2
aI1
aI1
aI2
aI2
aI2
aI2
aI2
aI2
aI2
aI1
aI1
aI0
aI0
aI0
aI0
aI3
aI0
aI1
aI0
aI0
aI0
aI1
aI0
aI0
aI0
aI0
aI1
aI0
aI0
aI0
aI0
aI0
aI0
aI0
aI1
aI1
aI1
aI0
aI0
aI0
aI0
aI0
aI0
aI0
aI0
aI0
aI0
aI0
aI0
aI0
aI0
aI1
aI1
aI1
aI1
aI1
aI0
aI0
aI0
aI0
aI3
aI2
aI3
aI0
aI3
aI3
aI2
aI3
aI0
aI0
aI0
aI1
aI1
aI1
aI1
aI1
aI0
aI0
aI0
aI0
aI0
aI3
aI3
aI3
aI3
aI0
aI3
aI0
aI0
aI0
aI1
aI1
aI1
aI1
aI0
aI0
aI0
aI0
aI0
aI0
aI1
aI1
aI1
aI2
aI2
aI2
aI2
aI2
aI2
aI2
aI2
aI2
aI2
aI2
aI2
aI2
aI2
aI2
aI2
aI2
aI2
aI2
aI2
aI2
aI2
aI2
aI2
aI2
aI2
aI2
aI2
aI2
aI2
aI2
aI2
aI2
aI2
aI2
aI2
aI2
aI2
aI2
aI2
aI2
aI2
aI2
aI2
aI2
aI1
aI1
aI0
aI0
aI0
aI0
aI0
aI0
aI0
aI0
aI0
aI0
aI0
aI0
aI0
aI0
aI0
aI0
aI0
aI0
aI0
aI0
aI0
aI0
aI0
aI0
aI0
aI0
aI0
aI0
aI0
aI0
aI0
aI0
aI0
aI0
aI0
aI0
aI0
aI0
aI0
aI0
aI0
aI0
aI0
aI0
aI0
aI1
aI1
aI2
aI2
aI2
aI2
aI2
aI2
aI2
aI2
aI2
aI2
aI2
aI2
aI2
aI2
aI2
aI2
aI2
aI2
aI1
aI1
aI1
aI1
aI1
aI1
aI0
aI0
aI0
aI0
aI0
aI0
aI0
aI0
aI0
aI0
aI0
aI0
aI0
aI0
aI0
aI0
aI0
aI0
aI1
aI1
aI1
aI1
aI2
aI2
aI2
aI2
aI2
aI2
aI2
aI2
aI2
aI2
aI2
aI2
aI2
aI2
aI2
aI2
aI2
aI2
aI2
aI2
aI2
aI2
aI2
aI2
aI2
aI2
aI2
aI2
aI2
aI2
aI2
aI2
aI2
aI2
aI2
aI2
aI2
aI2
aI3
aI3
aI3
aI3
aI3
aI3
aI3
aI3
aI3
aI3
aI2
aI2
aI2
aI2
aI2
aI2
aI2
aI2
aI3
aI2
aI2
aI3
aI3
aI3
aI3
aI3
aI3
aI3
aI3
aI3
aI2
aI2
aI2
aI2
aI2
aI2
aI2
aI2
aI2
aI3
aI3
aI3
aI3
aI3
aI3
aI3
aI3
aI2
aI2
aI2
aI2
aI2
aI3
aI3
aI3
aI2
aI2
aI2
aI2
aI2
aI2
aI2
aI3
aI3
aI3
aI0
aI0
aI0
aI0
aI0
aI0
aI0
aI1
aI1
aI3
aI3
aI3
aI2
aI2
aI3
aI0
aI0
aI3
aI2
aI3
aI2
aI2
aI2
aI2
aI2
aI2
aI2
aI2
aI2
aI2
aI2
aI2
aI2
aI2
aI2
aI2
aI1
aI1
aI0
aI0
aI0
aI0
aI0
aI0
aI0
aI0
aI0
aI0
aI0
aI0
aI0
aI0
aI2
aI2
aI0
aI2
aI2
aI2
aI2
aI2
aI2
aI2
aI2
aI2
aI2
aI2
aI0
aI2
aI2
aI0
aI2
aI2
aI0
aI2
aI3
aI1
aI0
aI2
aI0
aI0
aI0
aI0
aI0
aI0
aI0
aI0
aI0
aI0
aI0
aI0
aI0
aI2
aI0
aI2
aI0
aI0
aI0
aI1
aI1
aI0
aI2
aI0
aI2
aI0
aI0
aI2
aI0
aI2
aI2
aI2
aI2
aI0
aI2
aI2
aI0
aI2
aI2
aI1
aI1
aI1
aI1
aI2
aI1
aI0
aI0
aI0
aI1
aI0
aI1
aI0
aI1
aI0
aI1
aI0
aI1
aI0
aI0
aI0
aI1
aI1
aI1
aI1
aI1
aI1
aI2
aI2
aI2
aI2
aI2
aI2
aI2
aI2
aI2
aI1
aI1
aI0
aI0
aI0
aI0
aI0
aI0
aI0
aI0
aI0
aI0
aI0
aI0
aI0
aI0
aI1
aI1
aI1
aI0
aI0
aI1
aI1
aI2
aI2
aI1
aI1
aI0
aI0
aI0
aI0
aI1
aI1
aI1
aI1
aI1
aI1
aI1
aI1
aI1
aI1
aI1
aI1
aI1
aI1
aI2
aI2
aI2
aI2
aI3
aI3
aI2
aI2
aI1
aI1
aI2
aI2
aI2
aI2
aI2
aI2
aI2
aI2
aI2
aI2
aI2
aI2
aI3
aI3
aI3
aI3
aI3
aI3
aI3
aI3
aI3
aI3
aI3
aI3
aI3
aI0
aI0
aI1
aI1
aI1
aI1
aI1
aI0
aI0
aI3
aI0
aI0
aI1
aI0
aI0
aI3
aI3
aI3
aI3
aI3
aI0
aI0
aI0
aI0
aI1
aI1
aI1
aI1
aI1
aI1
aI1
aI1
aI1
aI1
aI1
aI1
aI3
aI1
aI3
aI1
aI1
aI2
aI0
aI2
aI2
aI3
aI3
aI3
aI3
aI3
aI2
aI2
aI2
aI2
aI2
aI2
aI2
aI2
aI2
aI2
aI3
aI1
aI1
aI3
aI1
aI1
aI3
aI3
aI1
aI3
aI1
aI3
aI1
aI1
aI3
aI1
aI3
aI1
aI1
aI2
aI2
aI3
aI3
aI2
aI2
aI3
aI3
aI2
aI2
aI1
aI1
aI1
aI1
aI1
aI1
aI2
aI2
aI2
aI2
aI2
aI3
aI3
aI3
aI3
aI3
aI0
aI3
aI3
aI2
aI3
aI3
aI0
aI0
aI0
aI1
aI0
aI0
aI3
aI0
aI0
aI3
aI3
aI3
aI2
aI3
aI2
aI3
aI3
aI2
aI2
aI2
aI2
aI3
aI3
aI3
aI3
aI2
asg5
I1068
sa(dp14
g3
(lp15
I0
aI0
aI0
aI0
aI0
aI0
aI0
aI1
aI1
aI0
aI1
aI1
aI1
aI1
aI1
aI0
aI1
aI1
aI1
aI2
aI2
aI2
aI2
aI1
aI2
aI2
aI3
aI2
aI2
aI2
aI1
aI1
aI0
aI1
aI1
aI2
aI1
aI1
aI1
aI1
aI1
aI0
aI0
aI0
aI0
aI0
aI3
aI3
aI3
aI3
aI3
aI3
aI0
aI0
aI1
aI1
aI0
aI0
aI1
aI1
aI0
aI0
aI3
aI3
aI3
aI3
aI3
aI3
aI3
aI3
aI3
aI3
aI3
aI0
aI0
aI1
aI1
aI1
aI1
aI1
aI1
aI0
aI3
aI0
aI3
aI0
aI0
aI1
aI0
aI0
aI3
aI3
aI3
aI3
aI3
aI0
aI0
aI0
aI0
aI1
aI1
aI1
aI1
aI1
aI1
aI1
aI1
aI1
aI1
aI1
aI0
aI0
aI1
aI1
aI0
aI0
aI0
aI0
aI0
aI0
aI3
aI3
aI3
aI3
aI3
aI3
aI3
aI3
aI3
aI3
aI0
aI0
aI1
aI1
aI1
aI1
aI1
aI1
aI1
aI1
aI1
aI0
aI0
aI3
aI3
aI3
aI3
aI3
aI3
aI3
aI3
aI3
aI0
aI0
aI1
aI1
aI1
aI1
aI1
aI1
aI1
aI1
aI1
aI0
aI0
aI3
aI3
aI3
aI3
aI3
aI3
aI3
aI3
aI3
aI3
aI3
aI3
aI2
aI2
aI2
aI2
aI2
aI2
aI2
aI2
aI3
aI2
aI2
aI2
aI2
aI2
aI2
aI3
aI3
aI0
aI0
aI2
aI2
aI0
aI0
aI3
aI0
aI2
aI1
aI3
aI1
aI3
aI3
aI1
aI0
aI0
aI3
aI3
aI1
aI3
aI1
aI1
aI3
aI3
aI3
aI3
aI3
aI3
aI2
aI2
aI2
aI2
aI2
aI2
aI2
aI2
aI2
aI3
aI3
aI3
aI3
aI3
aI3
aI2
aI2
aI2
aI3
aI2
aI3
aI2
aI3
aI2
aI3
aI2
aI3
aI2
aI2
aI1
aI1
aI1
aI1
aI2
aI3
aI2
aI1
aI2
aI1
aI0
aI0
aI0
aI0
aI3
aI3
aI2
aI3
aI2
aI3
aI3
aI3
aI3
aI0
aI0
aI0
aI0
aI0
aI0
aI0
aI1
aI1
aI1
aI0
aI0
aI0
aI0
aI0
aI1
aI1
aI1
aI1
aI1
aI1
aI1
aI1
aI0
aI0
aI0
aI0
aI0
aI0
aI0
aI0
aI0
aI1
aI1
aI1
aI1
aI1
aI1
aI1
aI1
aI1
aI0
aI0
aI1
aI0
aI0
aI0
aI0
aI0
aI0
aI0
aI0
aI0
aI0
aI1
aI1
aI1
aI1
aI1
aI1
aI2
aI2
aI1
aI1
aI1
aI1
aI1
aI1
aI1
aI1
aI0
aI1
aI2
aI3
aI3
aI3
aI0
aI0
aI0
aI0
aI0
aI0
aI0
aI0
aI0
aI0
aI0
aI0
aI0
aI0
aI0
aI0
aI0
aI0
aI0
aI0
aI0
aI0
aI0
aI0
aI0
aI0
aI0
aI0
aI0
aI0
aI0
aI0
aI0
aI0
aI0
aI0
aI0
aI0
aI1
aI1
aI1
asg5
I392
sa(dp16
g3
(lp17
I2
aI3
aI3
aI0
aI1
aI0
aI1
aI0
aI1
aI0
aI1
aI1
aI2
aI1
aI2
aI1
aI2
aI2
aI1
aI1
aI0
aI1
aI1
aI0
aI0
aI0
aI0
aI0
aI0
aI0
aI0
aI0
aI0
aI0
aI0
aI0
aI0
aI1
aI1
aI1
aI0
aI0
aI1
aI1
aI2
aI2
aI1
aI1
aI0
aI0
aI0
aI0
aI1
aI1
aI1
aI1
aI1
aI1
aI1
aI1
aI1
aI1
aI1
aI1
aI1
aI1
aI2
aI2
aI2
aI2
aI3
aI3
aI2
aI2
aI1
aI1
aI2
aI2
aI3
aI3
aI3
aI3
aI3
aI2
aI2
aI2
aI2
aI2
aI2
aI2
aI2
aI2
aI2
aI1
aI1
aI1
aI2
aI2
aI3
aI3
aI2
aI2
aI3
aI3
aI2
aI2
aI1
aI1
aI1
aI1
aI1
aI1
aI2
aI2
aI2
aI2
aI2
aI3
aI3
aI3
aI3
aI3
aI0
aI3
aI3
aI2
aI3
aI3
aI0
aI0
aI0
aI1
aI0
aI0
aI3
aI0
aI0
aI3
aI3
aI3
aI2
aI3
aI2
aI3
aI3
aI2
aI2
aI2
aI2
aI3
aI3
aI3
aI3
aI2
asg5
I154
sa(dp18
g3
(lp19
I2
aI1
aI2
aI1
aI1
aI0
aI0
aI1
aI1
aI2
aI2
aI2
aI1
aI1
aI1
aI1
aI2
aI2
aI3
aI3
aI3
aI3
aI3
aI3
aI3
aI0
aI3
aI3
aI2
aI2
aI2
aI2
aI2
aI2
aI2
aI2
aI1
aI2
aI2
aI2
aI2
aI1
aI2
aI2
aI2
aI1
aI1
aI1
aI2
aI2
aI1
aI2
aI1
aI1
aI1
aI1
aI1
aI0
aI0
aI0
aI0
aI0
aI0
aI1
aI1
aI0
aI0
aI0
aI1
aI0
aI1
aI1
aI0
aI0
aI0
aI3
aI0
aI0
aI0
aI0
aI0
aI0
aI0
aI1
aI1
aI1
aI0
aI0
aI1
aI1
aI0
aI1
aI0
aI0
aI0
aI0
aI1
aI1
aI2
aI2
aI1
aI1
aI2
aI3
aI2
aI1
aI1
aI0
aI0
aI1
aI1
aI2
aI1
aI2
aI1
aI1
aI1
aI0
aI1
aI0
aI0
aI0
aI3
aI0
aI1
aI0
aI0
aI1
aI1
aI1
aI1
aI2
aI1
aI2
aI1
aI0
aI1
aI1
aI0
aI1
aI1
aI0
aI3
aI3
aI3
aI3
aI3
aI0
aI3
aI0
aI0
aI1
aI1
aI1
aI1
aI1
aI1
aI1
aI2
aI1
aI2
aI1
aI2
aI1
aI2
aI1
aI1
aI0
aI0
aI1
aI1
aI1
aI0
aI0
aI0
aI0
aI0
aI0
aI0
aI0
aI0
aI0
aI0
aI0
aI0
aI0
aI1
aI1
aI1
aI1
aI1
aI0
aI0
aI0
aI0
aI3
aI3
aI2
aI3
aI3
aI0
aI3
aI0
aI0
aI1
aI1
aI1
aI1
aI1
aI0
aI0
aI0
aI0
aI0
aI3
aI3
aI3
aI3
aI0
aI3
aI0
aI0
aI0
aI1
aI1
aI1
aI1
aI0
aI0
aI0
aI0
aI0
aI0
aI1
aI1
aI1
aI2
aI2
aI2
aI2
aI2
aI2
aI2
aI2
aI2
aI2
aI2
aI2
aI2
aI2
aI2
aI2
aI2
aI2
aI2
aI2
aI2
aI2
aI2
aI2
aI2
aI2
aI2
aI2
aI2
aI2
aI2
aI2
aI2
aI2
aI2
aI2
aI2
aI2
aI2
aI2
aI2
aI2
aI2
aI2
aI2
aI1
aI1
aI0
aI0
aI0
aI0
aI0
aI0
aI0
aI0
aI0
aI0
aI0
aI0
aI0
aI0
aI0
aI0
aI0
aI0
aI0
aI0
aI0
aI0
aI0
aI0
aI0
aI0
aI0
aI0
aI0
aI0
aI0
aI0
aI0
aI0
aI0
aI0
aI0
aI0
aI0
aI0
aI0
aI0
aI0
aI0
aI0
aI1
aI1
aI2
aI2
aI2
aI2
aI2
aI2
aI2
aI2
aI2
aI2
aI2
aI2
aI2
aI2
aI2
aI2
aI2
aI2
aI1
aI1
aI1
aI1
aI1
aI1
aI0
aI0
aI0
aI0
aI0
aI0
aI0
aI0
aI0
aI0
aI0
aI0
aI0
aI0
aI0
aI0
aI0
aI0
aI1
aI1
aI1
aI1
aI2
aI2
aI2
aI2
aI2
aI2
aI2
aI2
aI2
aI2
aI2
aI2
aI2
aI2
aI2
aI2
aI2
aI2
aI2
aI2
aI2
aI2
aI2
aI2
aI2
aI2
aI2
aI2
aI2
aI2
aI2
aI2
aI2
aI2
aI2
aI2
aI2
aI2
aI3
aI3
aI3
aI3
aI3
aI3
aI3
aI3
aI3
aI3
aI2
aI2
aI2
aI2
aI2
aI2
aI2
aI2
aI3
aI2
aI2
aI3
aI3
aI3
aI3
aI3
aI3
aI3
aI3
aI3
aI2
aI2
aI2
aI2
aI2
aI2
aI2
aI2
aI2
aI3
aI3
aI3
aI3
aI3
aI3
aI3
aI3
aI2
aI2
aI2
aI2
aI2
aI3
aI3
aI3
aI2
aI2
aI2
aI2
aI2
aI2
aI1
aI1
aI1
aI1
aI1
aI1
aI2
aI3
aI3
aI3
aI3
aI3
aI3
aI3
aI3
aI0
aI1
aI1
aI1
aI1
aI0
aI0
aI1
aI0
aI1
aI0
aI1
aI0
aI1
aI0
aI1
aI0
aI0
aI0
aI1
aI1
aI1
aI1
aI1
aI1
aI2
aI2
aI2
aI2
aI2
aI2
aI2
aI2
aI2
aI1
aI2
aI3
aI3
aI3
aI0
aI0
aI3
aI0
aI3
aI0
aI3
aI3
aI2
aI2
aI2
aI2
aI2
aI2
aI2
aI1
aI0
aI0
aI1
aI1
aI1
aI2
aI2
aI2
aI3
aI0
aI3
aI2
aI2
aI1
aI1
aI2
aI3
aI3
aI1
aI1
aI3
aI0
aI2
aI1
aI0
aI0
aI2
aI2
aI3
aI1
aI3
aI1
aI3
aI0
aI0
aI0
aI0
aI3
aI3
aI0
aI3
aI3
aI3
aI0
aI0
aI0
aI1
aI0
aI1
aI1
aI2
aI1
aI0
aI0
aI0
aI3
aI1
aI1
aI1
aI2
aI2
aI3
aI0
aI2
aI3
aI0
aI2
aI1
aI2
aI2
aI2
aI1
aI1
aI0
aI3
aI0
aI3
aI1
aI2
aI0
aI3
aI0
aI2
aI1
aI3
aI0
aI2
aI1
aI2
aI0
aI3
aI1
aI2
aI2
aI1
aI3
aI0
aI0
aI3
aI0
aI3
aI1
aI2
aI1
aI2
aI0
aI3
aI0
aI2
aI1
aI3
aI0
aI2
aI0
aI2
aI0
aI2
aI1
aI3
aI1
aI2
aI0
aI2
aI2
aI0
aI0
aI2
aI2
aI1
aI1
aI2
aI2
aI2
aI2
aI2
aI2
aI2
aI2
aI2
aI1
aI1
aI0
aI0
aI0
aI0
aI0
aI0
aI0
aI0
aI0
aI0
aI0
aI0
aI0
aI0
aI0
aI0
aI0
aI0
aI0
aI0
aI0
aI0
aI0
aI0
aI1
aI1
aI1
aI0
aI0
aI1
aI1
aI2
aI2
aI1
aI1
aI0
aI0
aI0
aI0
aI1
aI1
aI1
aI1
aI1
aI1
aI1
aI1
aI1
aI1
aI1
aI1
aI1
aI1
aI2
aI2
aI2
aI2
aI3
aI3
aI2
aI2
aI1
aI1
aI2
aI2
aI3
aI3
aI3
aI3
aI3
aI2
aI2
aI2
aI2
aI2
aI2
aI2
aI2
aI2
aI2
aI3
aI3
aI3
aI3
aI3
aI3
aI3
aI3
aI0
aI0
aI1
aI1
aI1
aI1
aI1
aI0
aI0
aI3
aI0
aI0
aI1
aI0
aI0
aI3
aI3
aI3
aI3
aI3
aI0
aI0
aI1
aI1
aI1
aI1
aI1
aI1
aI1
aI1
aI1
aI3
aI2
aI0
aI2
aI0
aI2
aI0
aI3
aI1
aI1
aI1
aI3
aI1
aI1
aI3
aI3
aI3
aI2
aI0
aI1
aI3
aI2
aI2
aI1
aI1
aI1
aI1
aI1
aI0
aI0
aI3
aI3
aI1
aI1
aI0
aI2
aI3
aI1
aI0
aI0
aI3
aI3
aI3
aI3
aI3
aI3
aI3
aI3
aI3
aI3
aI3
aI3
aI3
aI2
aI0
aI1
aI3
aI1
aI3
aI2
aI2
aI1
aI3
aI2
aI0
aI2
aI2
aI2
aI2
aI2
aI2
aI2
aI2
aI1
aI1
aI1
aI1
aI3
aI1
aI3
aI3
aI1
aI3
aI3
aI3
aI1
aI3
aI1
aI3
aI2
aI2
aI1
aI3
aI1
aI3
aI1
aI3
aI1
aI3
aI1
aI3
aI1
aI1
aI3
aI3
aI1
aI3
aI1
aI1
aI1
aI1
aI3
aI3
aI3
aI3
aI1
aI1
aI1
aI3
aI1
aI3
aI1
aI3
aI3
aI1
aI1
aI1
aI1
aI3
aI1
aI1
aI1
aI1
aI1
aI1
aI1
aI2
aI2
aI3
aI3
aI2
aI2
aI3
aI3
aI2
aI2
aI1
aI1
aI1
aI1
aI1
aI1
aI2
aI2
aI2
aI2
aI2
aI3
aI3
aI3
aI3
aI3
aI0
aI3
aI3
aI2
aI3
aI3
aI0
aI0
aI0
aI1
aI0
aI0
aI3
aI0
aI0
aI3
aI3
aI3
aI2
aI3
aI2
aI3
aI3
aI2
aI2
aI2
aI2
aI3
aI3
aI3
aI3
aI2
asg5
I999
sa(dp20
g3
(lp21
I1
aI2
aI2
aI2
aI2
aI2
aI2
aI2
aI1
aI1
aI1
aI1
aI1
aI1
aI1
aI1
aI1
aI0
aI0
aI0
aI3
aI0
aI3
aI0
aI3
aI0
aI3
aI0
aI3
aI0
aI0
aI0
aI0
aI0
aI1
aI0
aI1
aI0
aI1
aI0
aI1
aI0
aI1
aI0
aI0
aI0
aI1
aI1
aI1
aI1
aI1
aI1
aI0
aI0
aI0
aI0
aI0
aI0
aI0
aI0
aI0
aI1
aI1
aI1
aI1
aI1
aI1
aI2
aI2
aI1
aI2
aI2
aI1
aI1
aI0
aI0
aI0
aI0
aI1
aI1
aI1
aI1
aI1
aI1
aI1
aI1
aI1
aI1
aI1
aI1
aI1
aI1
aI2
aI2
aI2
aI2
aI3
aI3
aI2
aI2
aI1
aI1
aI2
aI2
aI2
aI2
aI2
aI2
aI2
aI2
aI2
aI2
aI2
aI2
aI3
aI3
aI2
aI2
aI3
aI3
aI2
aI2
aI3
aI3
aI2
aI2
aI1
aI1
aI1
aI1
aI1
aI1
aI2
aI2
aI2
aI2
aI2
aI3
aI3
aI3
aI3
aI3
aI0
aI3
aI3
aI2
aI3
aI3
aI0
aI0
aI0
aI1
aI0
aI0
aI3
aI0
aI0
aI3
aI3
aI3
aI2
aI3
aI2
aI3
aI3
aI2
aI2
aI2
aI2
aI3
aI3
aI3
aI3
aI2
asg5
I174
sa(dp22
g3
(lp23
I1
aI0
aI0
aI1
aI1
aI1
aI0
aI1
aI0
aI1
aI1
aI1
aI1
aI0
aI0
aI0
aI0
aI0
aI0
aI1
aI1
aI1
aI1
aI1
aI1
aI1
aI1
aI1
aI1
aI1
aI1
aI1
aI1
aI1
aI1
aI1
aI0
aI0
aI0
aI0
aI1
aI1
aI0
aI3
aI3
aI0
aI0
aI0
aI0
aI0
aI0
aI0
aI0
aI0
aI0
aI3
aI2
aI2
aI3
aI3
aI3
aI3
aI0
aI1
aI0
aI1
aI0
aI3
aI0
aI0
aI1
aI2
aI1
aI2
aI1
aI1
aI0
aI0
aI1
aI2
aI1
aI1
aI1
aI0
aI0
aI0
aI1
aI2
aI1
aI1
aI0
aI0
aI0
aI0
aI0
aI0
aI0
aI0
aI0
aI0
aI0
aI0
aI0
aI0
aI1
aI1
aI1
aI1
aI1
aI0
aI0
aI0
aI0
aI3
aI3
aI3
aI3
aI3
aI0
aI0
aI1
aI1
aI1
aI1
aI1
aI0
aI0
aI0
aI0
aI0
aI3
aI3
aI3
aI3
aI0
aI3
aI0
aI0
aI0
aI1
aI1
aI1
aI1
aI0
aI0
aI0
aI0
aI0
aI0
aI1
aI1
aI1
aI2
aI2
aI2
aI2
aI2
aI2
aI2
aI2
aI2
aI2
aI2
aI2
aI2
aI2
aI2
aI2
aI2
aI2
aI2
aI2
aI2
aI2
aI2
aI2
aI2
aI2
aI2
aI2
aI2
aI2
aI2
aI2
aI2
aI2
aI2
aI2
aI2
aI2
aI2
aI2
aI2
aI2
aI2
aI2
aI2
aI1
aI1
aI0
aI0
aI0
aI0
aI0
aI0
aI0
aI0
aI0
aI0
aI0
aI0
aI0
aI0
aI0
aI0
aI0
aI0
aI0
aI0
aI0
aI0
aI0
aI0
aI0
aI0
aI0
aI0
aI0
aI0
aI0
aI0
aI0
aI0
aI0
aI0
aI0
aI0
aI0
aI0
aI0
aI0
aI0
aI0
aI0
aI1
aI1
aI1
aI1
aI1
aI1
aI1
aI1
aI1
aI1
aI2
aI2
aI2
aI2
aI2
aI2
aI2
aI2
aI2
aI2
aI2
aI2
aI2
aI2
aI2
aI2
aI2
aI2
aI2
aI2
aI2
aI2
aI2
aI2
aI2
aI2
aI2
aI2
aI2
aI2
aI2
aI2
aI2
aI2
aI2
aI2
aI2
aI2
aI3
aI3
aI3
aI3
aI3
aI3
aI3
aI3
aI2
aI2
aI2
aI2
aI2
aI2
aI2
aI2
aI3
aI2
aI2
aI3
aI3
aI3
aI3
aI3
aI3
aI3
aI3
aI3
aI2
aI2
aI2
aI2
aI2
aI2
aI2
aI2
aI2
aI3
aI3
aI3
aI3
aI3
aI3
aI3
aI3
aI2
aI2
aI2
aI2
aI2
aI3
aI3
aI3
aI2
aI2
aI2
aI2
aI2
aI2
aI1
aI2
aI1
aI2
aI2
aI1
aI2
aI1
aI2
aI1
aI2
aI1
aI2
aI1
aI2
aI2
aI2
aI3
aI3
aI3
aI3
aI3
aI3
aI3
aI3
aI3
aI0
aI0
aI0
aI0
aI0
aI0
aI0
aI3
aI1
aI3
aI1
aI3
aI1
aI3
aI1
aI3
aI1
aI3
aI1
aI3
aI1
aI3
aI1
aI3
aI1
aI3
aI1
aI3
aI1
aI3
aI1
aI3
aI1
aI3
aI1
aI3
aI1
aI3
aI1
aI3
aI1
aI3
aI1
aI3
aI1
aI3
aI1
aI3
aI1
aI3
aI1
aI3
aI1
aI3
aI1
aI3
aI1
aI3
aI1
aI3
aI1
aI3
aI1
aI3
aI1
aI3
aI1
aI3
aI1
aI3
aI1
aI3
aI1
aI3
aI1
aI3
aI1
aI3
aI1
aI3
aI1
aI3
aI1
aI3
aI1
aI3
aI1
aI3
aI1
aI3
aI1
aI3
aI1
aI3
aI1
aI3
aI1
aI3
aI1
aI3
aI1
aI3
aI1
aI3
aI1
aI3
aI1
aI3
aI1
aI3
aI1
aI3
aI1
aI3
aI1
aI3
aI1
aI3
aI1
aI3
aI1
aI3
aI1
aI3
aI1
aI3
aI1
aI3
aI1
aI3
aI1
aI3
aI1
aI3
aI1
aI2
aI2
aI2
aI2
aI0
aI0
aI0
aI2
aI2
aI2
aI2
aI0
aI2
aI2
aI2
aI0
aI2
aI1
aI1
aI1
aI1
aI3
aI1
aI1
aI1
aI1
aI1
aI3
aI1
aI1
aI1
aI1
aI1
aI1
aI1
aI1
aI0
aI0
aI0
aI0
aI0
aI0
aI0
aI0
aI0
aI3
aI3
aI0
aI0
aI0
aI0
aI0
aI3
aI0
aI1
aI0
aI3
aI3
aI2
aI2
aI2
aI3
aI2
aI3
aI3
aI2
aI2
aI3
aI3
aI2
aI3
aI0
aI3
aI0
aI0
aI1
aI0
aI1
aI0
aI1
aI0
aI1
aI0
aI1
aI0
aI0
aI0
aI1
aI1
aI1
aI1
aI1
aI1
aI0
aI0
aI0
aI0
aI0
aI0
aI0
aI0
aI0
aI1
aI1
aI1
aI1
aI1
aI1
aI2
aI2
aI1
aI2
aI2
aI1
aI1
aI0
aI0
aI0
aI0
aI1
aI1
aI1
aI1
aI1
aI1
aI1
aI1
aI1
aI1
aI1
aI1
aI1
aI1
aI2
aI2
aI2
aI2
aI3
aI3
aI2
aI2
aI1
aI1
aI2
aI2
aI2
aI2
aI2
aI2
aI2
aI2
aI2
aI2
aI2
aI2
aI3
aI3
aI3
aI3
aI3
aI3
aI3
aI3
aI3
aI3
aI3
aI3
aI3
aI0
aI0
aI1
aI1
aI1
aI1
aI1
aI0
aI0
aI3
aI0
aI0
aI1
aI0
aI0
aI3
aI3
aI3
aI3
aI3
aI0
aI0
aI0
aI0
aI1
aI1
aI1
aI1
aI1
aI1
aI1
aI1
aI1
aI1
aI1
aI1
aI1
aI2
aI0
aI2
aI0
aI3
aI1
aI2
aI2
aI3
aI3
aI3
aI3
aI3
aI3
aI3
aI3
aI3
aI3
aI3
aI3
aI1
aI1
aI1
aI1
aI1
aI3
aI3
aI3
aI1
aI3
aI3
aI3
aI3
aI1
aI3
aI1
aI1
aI1
aI1
aI1
aI1
aI3
aI1
aI3
aI1
aI3
aI1
aI3
aI3
aI3
aI3
aI1
aI1
aI3
aI3
aI3
aI1
aI3
aI1
aI3
aI1
aI1
aI3
aI1
aI1
aI1
aI1
aI3
aI3
aI3
aI1
aI3
aI1
aI1
aI1
aI3
aI3
aI3
aI3
aI3
aI3
aI2
aI2
aI2
aI2
aI2
aI2
aI2
aI2
aI2
aI2
aI1
aI3
aI1
aI1
aI3
aI1
aI1
aI1
aI3
aI3
aI3
aI1
aI1
aI3
aI3
aI1
aI3
aI3
aI1
aI1
aI1
aI3
aI1
aI3
aI3
aI1
aI3
aI1
aI1
aI1
aI1
aI3
aI1
aI1
aI1
aI1
aI0
aI0
aI1
aI1
aI1
aI2
aI2
aI2
aI2
aI3
aI3
aI2
aI2
aI3
aI3
aI2
aI2
aI1
aI1
aI1
aI1
aI1
aI1
aI2
aI2
aI2
aI2
aI2
aI3
aI3
aI3
aI3
aI3
aI0
aI3
aI3
aI2
aI3
aI3
aI0
aI0
aI0
aI1
aI0
aI0
aI3
aI0
aI0
aI3
aI3
aI3
aI2
aI3
aI2
aI3
aI3
aI2
aI2
aI2
aI2
aI3
aI3
aI3
aI3
aI2
asg5
I909
sa(dp24
S'trail'
p25
(lp26
I0
aI0
aI0
aI0
aI1
aI1
aI0
aI0
aI0
aI0
aI1
aI1
aI1
aI1
aI1
aI2
aI1
aI1
aI1
aI2
aI2
aI1
aI2
aI2
aI3
aI2
aI2
aI2
aI1
aI1
aI0
aI1
aI1
aI2
aI1
aI1
aI1
aI1
aI1
aI0
aI0
aI0
aI0
aI0
aI3
aI3
aI3
aI3
aI3
aI3
aI0
aI0
aI1
aI1
aI0
aI0
aI1
aI1
aI0
aI0
aI1
aI1
aI0
aI0
aI0
aI0
aI0
aI0
aI0
aI0
aI0
aI0
aI0
aI0
aI3
aI3
aI0
aI0
aI1
aI1
aI0
aI0
aI0
aI0
aI3
aI3
aI3
aI3
aI3
aI3
aI3
aI3
aI3
aI3
aI3
aI3
aI3
aI3
aI3
aI3
aI3
aI3
aI3
aI3
aI3
aI3
aI3
aI2
aI2
aI2
aI2
aI2
aI2
aI2
aI2
aI2
aI3
aI3
aI3
aI3
aI3
aI3
aI2
aI2
aI2
aI3
aI2
aI3
aI2
aI3
aI2
aI3
aI2
aI3
aI2
aI2
aI2
aI3
aI3
aI0
aI0
aI0
aI0
aI0
aI0
aI0
aI1
aI1
aI1
aI0
aI0
aI0
aI0
aI0
aI1
aI1
aI1
aI1
aI1
aI1
aI1
aI1
aI0
aI0
aI0
aI0
aI0
aI0
aI0
aI0
aI0
aI1
aI1
aI1
aI1
aI1
aI1
aI1
aI1
aI1
aI0
aI0
aI1
aI0
aI0
aI0
aI0
aI0
aI0
aI0
aI0
aI1
aI1
aI1
aI1
aI1
aI1
aI1
aI1
aI0
aI0
aI0
aI0
aI0
aI0
aI0
aI0
aI0
aI0
aI0
aI0
aI0
aI0
aI0
aI0
aI0
aI0
aI0
aI0
aI0
aI0
aI0
aI0
aI0
aI0
aI0
aI0
aI0
aI0
aI0
aI0
aI0
aI0
aI0
aI0
aI0
aI0
aI3
aI3
aI2
aI2
aI2
aI2
aI2
aI2
aI2
aI2
aI2
aI2
aI2
aI2
aI2
aI2
aI2
aI2
aI2
aI2
aI3
aI3
aI3
aI3
aI3
aI3
aI0
aI0
aI0
aI0
aI0
aI0
aI0
aI0
aI0
aI0
aI0
aI0
aI0
aI0
aI0
aI0
aI0
aI0
aI3
aI3
aI2
aI2
aI2
aI2
aI2
aI2
aI2
aI2
aI2
aI2
aI2
aI2
aI2
aI2
aI2
aI2
aI2
aI2
aI2
aI2
aI2
aI2
aI2
aI2
aI2
aI2
aI2
aI2
aI2
aI2
aI2
aI2
aI2
aI2
aI2
aI2
aI2
aI2
aI2
aI2
aI2
aI2
aI2
aI2
aI2
aI3
aI3
aI0
aI0
aI0
aI0
aI0
aI0
aI0
aI0
aI0
aI0
aI0
aI0
aI0
aI0
aI0
aI0
aI0
aI0
aI0
aI0
aI0
aI0
aI0
aI0
aI0
aI0
aI0
aI0
aI0
aI0
aI0
aI0
aI0
aI0
aI0
aI0
aI0
aI0
aI0
aI0
aI0
aI0
aI0
aI0
aI0
aI3
aI3
aI3
aI2
aI2
aI2
aI2
aI2
aI2
aI3
aI3
aI3
aI3
aI2
aI2
aI2
aI2
aI1
aI1
aI1
aI0
aI1
aI1
aI2
aI2
aI2
aI2
aI2
aI2
aI3
aI3
aI3
aI3
aI3
aI2
aI2
aI1
aI1
aI2
aI1
aI1
aI0
aI1
asS'length'
p27
I418
sa(dp28
g25
(lp29
I0
aI0
aI0
aI0
aI1
aI1
aI0
aI0
aI0
aI0
aI1
aI1
aI1
aI1
aI1
aI2
aI1
aI1
aI1
aI2
aI2
aI1
aI2
aI2
aI3
aI2
aI2
aI2
aI1
aI1
aI0
aI1
aI1
aI2
aI1
aI1
aI1
aI1
aI1
aI0
aI0
aI0
aI0
aI0
aI3
aI3
aI3
aI3
aI3
aI3
aI0
aI0
aI1
aI1
aI0
aI0
aI1
aI1
aI0
aI0
aI1
aI1
aI0
aI0
aI0
aI0
aI0
aI0
aI0
aI0
aI0
aI0
aI0
aI0
aI3
aI3
aI0
aI0
aI1
aI1
aI0
aI0
aI0
aI0
aI3
aI3
aI3
aI3
aI3
aI3
aI3
aI3
aI3
aI3
aI3
aI3
aI3
aI3
aI3
aI3
aI3
aI3
aI3
aI3
aI3
aI3
aI3
aI2
aI2
aI2
aI2
aI2
aI2
aI2
aI2
aI2
aI3
aI3
aI3
aI3
aI3
aI3
aI2
aI2
aI2
aI3
aI2
aI3
aI2
aI3
aI2
aI3
aI2
aI3
aI2
aI2
aI3
aI2
aI3
aI0
aI0
aI0
aI0
aI0
aI0
aI0
aI1
aI1
aI1
aI0
aI0
aI0
aI0
aI0
aI1
aI1
aI1
aI1
aI1
aI1
aI1
aI1
aI0
aI0
aI0
aI0
aI0
aI0
aI0
aI0
aI0
aI1
aI1
aI1
aI1
aI1
aI1
aI1
aI1
aI1
aI0
aI0
aI1
aI0
aI0
aI0
aI0
aI0
aI0
aI0
aI0
aI1
aI1
aI1
aI1
aI1
aI1
aI1
aI1
aI0
aI0
aI0
aI0
aI0
aI0
aI0
aI0
aI0
aI0
aI0
aI0
aI0
aI0
aI0
aI0
aI0
aI0
aI0
aI0
aI0
aI0
aI0
aI0
aI0
aI0
aI0
aI0
aI0
aI0
aI0
aI0
aI0
aI0
aI0
aI0
aI0
aI0
aI3
aI3
aI2
aI2
aI2
aI2
aI2
aI2
aI2
aI2
aI2
aI2
aI2
aI2
aI2
aI2
aI2
aI2
aI2
aI2
aI3
aI3
aI3
aI3
aI3
aI3
aI0
aI0
aI0
aI0
aI0
aI0
aI0
aI0
aI0
aI0
aI0
aI0
aI0
aI0
aI0
aI0
aI0
aI0
aI3
aI3
aI2
aI2
aI2
aI2
aI2
aI2
aI2
aI2
aI2
aI2
aI2
aI2
aI2
aI2
aI2
aI2
aI2
aI2
aI2
aI2
aI2
aI2
aI2
aI2
aI2
aI2
aI2
aI2
aI2
aI2
aI2
aI2
aI2
aI2
aI2
aI2
aI2
aI2
aI2
aI2
aI2
aI2
aI2
aI2
aI2
aI3
aI3
aI0
aI0
aI0
aI0
aI0
aI0
aI0
aI0
aI0
aI0
aI0
aI0
aI0
aI0
aI0
aI0
aI0
aI0
aI0
aI0
aI0
aI0
aI0
aI0
aI0
aI0
aI0
aI0
aI0
aI0
aI0
aI0
aI0
aI0
aI0
aI0
aI0
aI0
aI0
aI0
aI0
aI0
aI0
aI0
aI0
aI3
aI3
aI3
aI2
aI2
aI2
aI2
aI2
aI2
aI3
aI3
aI3
aI3
aI2
aI2
aI2
aI2
aI1
aI1
aI1
aI0
aI1
aI1
aI2
aI2
aI2
aI2
aI2
aI2
aI3
aI3
aI3
aI3
aI3
aI2
aI2
aI1
aI1
aI2
aI3
aI3
aI0
aI1
aI2
aI1
aI1
aI1
aI0
aI1
aI2
aI2
aI2
aI2
aI3
aI3
aI3
aI3
aI3
aI2
aI2
aI2
aI2
aI2
aI2
aI2
aI2
aI2
aI2
aI2
aI2
aI2
aI2
aI3
aI3
aI0
aI3
aI2
aI2
aI2
aI3
aI3
aI0
aI3
aI2
aI3
aI3
aI3
aI3
asg27
I463
sa(dp30
g25
(lp31
I0
aI0
aI0
aI0
aI1
aI1
aI0
aI0
aI0
aI0
aI1
aI1
aI1
aI1
aI1
aI2
aI1
aI1
aI1
aI2
aI2
aI1
aI2
aI2
aI3
aI2
aI2
aI2
aI1
aI1
aI0
aI1
aI1
aI2
aI1
aI1
aI1
aI1
aI1
aI0
aI0
aI0
aI0
aI0
aI3
aI3
aI3
aI3
aI3
aI3
aI0
aI0
aI1
aI1
aI0
aI0
aI1
aI1
aI0
aI0
aI1
aI1
aI0
aI0
aI0
aI0
aI0
aI0
aI0
aI0
aI0
aI0
aI0
aI0
aI3
aI3
aI0
aI0
aI1
aI1
aI0
aI0
aI0
aI0
aI3
aI3
aI3
aI3
aI3
aI3
aI3
aI3
aI3
aI3
aI3
aI3
aI3
aI3
aI3
aI3
aI3
aI3
aI3
aI3
aI3
aI3
aI3
aI2
aI2
aI2
aI2
aI2
aI2
aI2
aI2
aI2
aI3
aI3
aI3
aI3
aI3
aI3
aI2
aI2
aI2
aI3
aI2
aI3
aI2
aI3
aI2
aI3
aI2
aI3
aI2
aI2
aI3
aI3
aI0
aI0
aI0
aI0
aI0
aI0
aI1
aI1
aI1
aI0
aI0
aI0
aI0
aI0
aI1
aI1
aI1
aI1
aI1
aI1
aI1
aI1
aI0
aI0
aI0
aI0
aI0
aI0
aI0
aI0
aI0
aI1
aI1
aI1
aI1
aI1
aI1
aI1
aI1
aI1
aI0
aI0
aI1
aI0
aI0
aI0
aI0
aI0
aI0
aI0
aI0
aI1
aI1
aI1
aI1
aI1
aI1
aI1
aI1
aI0
aI0
aI0
aI0
aI0
aI0
aI0
aI0
aI0
aI0
aI0
aI0
aI0
aI0
aI0
aI0
aI0
aI0
aI0
aI0
aI0
aI0
aI0
aI0
aI0
aI0
aI0
aI0
aI0
aI0
aI0
aI0
aI0
aI0
aI0
aI0
aI0
aI0
aI3
aI3
aI2
aI2
aI2
aI2
aI2
aI2
aI2
aI2
aI2
aI2
aI2
aI2
aI2
aI2
aI2
aI2
aI2
aI2
aI3
aI3
aI3
aI3
aI3
aI3
aI0
aI0
aI0
aI0
aI0
aI0
aI0
aI0
aI0
aI0
aI0
aI0
aI0
aI0
aI0
aI0
aI0
aI0
aI3
aI3
aI2
aI2
aI2
aI2
aI2
aI2
aI2
aI2
aI2
aI2
aI2
aI2
aI2
aI2
aI2
aI2
aI2
aI2
aI2
aI2
aI2
aI2
aI2
aI2
aI2
aI2
aI2
aI2
aI2
aI2
aI2
aI2
aI2
aI2
aI2
aI2
aI2
aI2
aI2
aI2
aI2
aI2
aI2
aI2
aI2
aI3
aI3
aI0
aI0
aI0
aI0
aI0
aI0
aI0
aI0
aI0
aI0
aI0
aI0
aI0
aI0
aI0
aI0
aI0
aI0
aI0
aI0
aI0
aI0
aI0
aI0
aI0
aI0
aI0
aI0
aI0
aI0
aI0
aI0
aI0
aI0
aI0
aI0
aI0
aI0
aI0
aI0
aI0
aI0
aI0
aI0
aI0
aI3
aI3
aI3
aI2
aI2
aI2
aI2
aI2
aI2
aI3
aI3
aI3
aI3
aI2
aI2
aI2
aI2
aI1
aI1
aI1
aI0
aI1
aI1
aI2
aI2
aI2
aI2
aI2
aI2
aI3
aI3
aI3
aI3
aI3
aI2
aI2
aI1
aI1
aI2
aI1
aI1
aI1
aI2
aI2
aI2
aI3
aI3
aI3
aI3
aI3
aI2
aI2
aI2
aI2
aI2
aI2
aI2
aI2
aI2
aI2
aI2
aI2
aI2
aI2
aI3
aI3
aI3
aI2
aI2
aI3
aI3
aI3
aI0
aI1
aI0
aI3
aI0
aI1
aI0
aI3
aI3
aI2
aI2
aI2
aI3
aI0
aI3
aI2
aI3
aI0
aI0
aI1
aI0
aI3
aI3
aI3
aI3
aI3
aI2
aI2
aI1
aI0
aI1
aI1
aI2
aI2
aI3
aI3
aI2
aI3
aI3
aI3
aI3
aI3
aI3
aI3
aI3
aI0
aI0
aI0
aI1
aI1
aI2
aI3
aI2
aI1
aI2
aI2
aI2
aI2
aI3
aI3
aI0
aI0
aI1
aI2
aI2
aI2
aI1
aI2
aI3
aI2
aI2
aI1
aI0
aI0
aI0
aI0
aI2
aI3
aI3
aI3
aI0
aI3
aI3
aI3
aI3
aI2
aI3
aI3
aI3
aI3
aI3
aI2
aI3
aI2
aI2
aI2
aI3
aI3
aI2
aI2
aI3
aI3
aI3
aI2
aI2
aI2
aI2
aI2
aI2
aI2
aI1
aI2
aI2
aI2
aI3
aI3
aI2
aI3
aI2
aI2
aI2
aI3
aI3
aI2
aI2
aI2
aI2
aI2
aI2
aI3
aI0
aI3
aI2
aI3
aI3
aI3
aI0
aI3
aI0
aI0
aI1
aI0
aI1
aI1
aI0
aI1
aI0
aI3
aI0
aI0
aI0
aI1
aI1
aI0
aI1
aI0
aI0
aI1
aI0
aI0
aI0
aI3
aI2
aI3
aI3
aI3
aI0
aI3
aI3
aI3
aI2
aI3
aI2
aI3
aI3
aI3
aI3
aI0
aI0
aI0
aI0
aI0
aI1
aI1
aI2
aI1
aI1
aI1
aI1
aI1
aI1
aI1
aI0
aI0
aI3
aI3
aI3
aI3
aI0
aI0
aI3
aI3
aI2
aI3
aI3
aI0
aI3
aI0
aI0
aI1
aI1
aI1
aI2
aI1
aI1
aI1
aI0
aI1
aI1
aI2
aI1
aI2
aI1
aI1
aI0
aI0
aI0
aI0
aI3
aI3
aI3
aI3
aI3
aI3
aI3
aI3
aI3
aI3
aI3
aI0
aI3
aI0
aI0
aI0
aI1
aI1
aI2
aI1
aI2
aI1
aI1
aI0
aI1
aI1
aI1
aI1
aI2
aI1
aI1
aI1
aI1
aI1
aI1
aI1
aI2
aI1
aI2
aI2
aI3
aI2
aI2
aI3
aI1
aI3
aI1
aI3
aI1
aI3
aI1
aI0
aI0
aI1
aI3
aI2
aI2
aI3
aI1
aI3
aI1
aI0
aI2
aI0
aI2
aI3
aI1
aI0
aI0
aI1
aI3
aI2
aI0
aI1
aI0
aI2
aI0
aI2
aI0
aI2
aI0
aI0
aI2
aI0
aI3
aI1
aI3
aI1
aI3
aI1
aI2
aI2
aI3
aI1
aI0
aI0
aI2
aI0
aI3
aI0
aI2
aI1
aI2
aI2
aI0
aI0
aI2
aI2
aI0
aI2
aI0
aI2
aI3
aI2
aI2
aI0
aI2
aI3
aI1
aI3
aI1
aI3
aI1
aI0
aI2
aI0
aI2
aI3
aI1
aI0
aI2
aI3
aI1
aI0
aI0
aI2
aI2
aI0
aI0
aI2
aI2
aI3
aI1
aI3
aI1
aI0
aI2
aI0
aI0
aI2
aI2
aI3
aI1
aI0
aI2
aI3
aI1
aI0
aI2
aI3
aI1
aI3
aI1
aI3
aI1
aI0
aI0
aI1
aI3
aI1
aI0
aI2
aI3
aI2
aI2
aI3
aI1
aI0
aI2
aI0
aI0
aI2
aI0
aI2
aI0
aI2
aI0
aI1
aI0
aI0
aI2
aI2
aI0
aI2
aI0
aI0
aI2
aI2
aI0
aI2
aI3
aI1
aI0
aI2
aI0
aI2
aI0
aI2
aI0
aI0
aI3
aI0
aI3
aI3
aI3
aI3
aI1
aI3
aI3
aI3
aI1
aI3
aI3
aI1
aI3
aI0
aI3
aI0
aI0
aI3
aI3
aI0
aI3
aI3
aI3
aI0
aI0
aI1
aI1
aI1
aI1
aI1
aI1
aI0
aI3
aI0
aI0
aI0
aI0
aI1
aI0
aI1
aI2
aI1
aI0
aI1
aI0
aI0
aI0
aI0
aI1
aI0
aI1
aI2
aI2
aI3
aI2
aI2
aI1
aI0
aI2
aI2
aI3
aI2
aI3
aI1
aI1
aI3
aI0
aI0
aI2
aI1
aI0
aI0
aI0
aI0
aI0
aI0
aI3
aI3
aI0
aI1
aI1
aI0
aI3
aI3
aI0
aI1
aI0
aI1
aI0
aI0
asg27
I975
sa(dp32
g25
(lp33
I0
aI1
aI1
aI1
aI1
aI0
aI0
aI0
aI0
aI1
aI1
aI0
aI1
aI0
aI0
aI0
aI1
aI1
aI1
aI2
aI2
aI2
aI2
aI1
aI2
aI2
aI3
aI2
aI2
aI2
aI1
aI1
aI0
aI1
aI1
aI2
aI1
aI1
aI1
aI1
aI1
aI0
aI0
aI0
aI0
aI0
aI3
aI3
aI3
aI3
aI3
aI3
aI0
aI0
aI1
aI1
aI0
aI0
aI1
aI1
aI0
aI0
aI1
aI1
aI0
aI0
aI0
aI0
aI0
aI0
aI0
aI0
aI0
aI0
aI0
aI0
aI3
aI3
aI0
aI0
aI1
aI1
aI0
aI0
aI0
aI0
aI3
aI3
aI3
aI3
aI3
aI3
aI3
aI3
aI3
aI3
aI3
aI3
aI3
aI3
aI3
aI3
aI3
aI3
aI3
aI3
aI3
aI3
aI3
aI2
aI2
aI2
aI2
aI2
aI2
aI2
aI2
aI2
aI3
aI3
aI3
aI3
aI3
aI3
aI2
aI2
aI2
aI3
aI2
aI3
aI2
aI3
aI2
aI3
aI2
aI3
aI2
aI2
aI2
aI3
aI0
aI3
aI2
aI3
aI3
aI3
aI0
aI0
aI0
aI0
aI0
aI0
aI0
aI1
aI1
aI1
aI1
aI1
aI1
aI0
aI0
aI0
aI0
aI0
aI1
aI1
aI1
aI1
aI1
aI1
aI1
aI1
aI0
aI0
aI0
aI0
aI0
aI0
aI0
aI0
aI0
aI1
aI1
aI1
aI1
aI1
aI1
aI1
aI1
aI1
aI0
aI0
aI1
aI0
aI0
aI0
aI0
aI0
aI0
aI0
aI0
aI1
aI1
aI1
aI1
aI1
aI1
aI1
aI1
aI0
aI0
aI0
aI0
aI0
aI0
aI0
aI0
aI0
aI0
aI0
aI0
aI0
aI0
aI0
aI0
aI0
aI0
aI0
aI0
aI0
aI0
aI0
aI0
aI0
aI0
aI0
aI0
aI0
aI0
aI0
aI0
aI0
aI0
aI0
aI0
aI0
aI0
aI3
aI3
aI2
aI2
aI2
aI2
aI2
aI2
aI2
aI2
aI2
aI2
aI2
aI2
aI2
aI2
aI2
aI2
aI2
aI2
aI3
aI3
aI3
aI3
aI3
aI3
aI0
aI0
aI0
aI0
aI0
aI0
aI0
aI0
aI0
aI0
aI0
aI0
aI0
aI0
aI0
aI0
aI0
aI0
aI3
aI3
aI2
aI2
aI2
aI2
aI2
aI2
aI2
aI2
aI2
aI2
aI2
aI2
aI2
aI2
aI2
aI2
aI2
aI2
aI2
aI2
aI2
aI2
aI2
aI2
aI2
aI2
aI2
aI2
aI2
aI2
aI2
aI2
aI2
aI2
aI2
aI2
aI2
aI2
aI2
aI2
aI2
aI2
aI2
aI2
aI2
aI3
aI3
aI0
aI0
aI0
aI0
aI0
aI0
aI0
aI0
aI0
aI0
aI0
aI0
aI0
aI0
aI0
aI0
aI0
aI0
aI0
aI0
aI0
aI0
aI0
aI0
aI0
aI0
aI0
aI0
aI0
aI0
aI0
aI0
aI0
aI0
aI0
aI0
aI0
aI0
aI0
aI0
aI0
aI0
aI0
aI0
aI0
aI3
aI3
aI3
aI2
aI2
aI2
aI2
aI2
aI2
aI3
aI3
aI3
aI3
aI2
aI2
aI2
aI2
aI1
aI1
aI1
aI0
aI1
aI1
aI2
aI2
aI2
aI2
aI2
aI2
aI3
aI3
aI3
aI3
aI3
aI2
aI2
aI2
aI1
aI1
aI1
aI1
aI1
aI2
aI2
aI2
aI3
aI3
aI3
aI3
aI3
aI2
aI2
aI2
aI2
aI2
aI2
aI2
aI2
aI2
aI2
aI2
aI2
aI2
aI2
aI3
aI3
aI0
aI3
aI2
aI2
aI2
aI3
aI3
aI2
aI2
aI3
aI0
aI3
aI0
aI3
aI3
aI2
aI2
aI1
aI2
aI2
aI3
aI3
aI0
aI3
aI3
aI0
aI3
aI3
aI3
aI2
aI1
aI1
aI2
aI1
aI1
aI0
aI0
aI1
aI0
aI0
aI0
aI0
aI3
aI2
aI2
aI2
aI3
aI3
aI3
aI0
aI3
aI3
aI3
aI3
aI3
aI3
aI3
aI3
aI2
aI1
aI1
aI1
aI2
aI3
aI2
aI3
aI3
aI2
aI1
aI1
aI1
aI2
aI3
aI2
aI1
aI2
aI3
aI3
aI3
aI0
aI0
aI3
aI3
asg27
I534
sa(dp34
g25
(lp35
I0
aI0
aI0
aI0
aI1
aI1
aI0
aI0
aI0
aI0
aI1
aI1
aI1
aI1
aI1
aI0
aI1
aI1
aI1
aI2
aI2
aI2
aI2
aI1
aI2
aI2
aI3
aI2
aI2
aI2
aI1
aI1
aI0
aI1
aI1
aI2
aI1
aI1
aI1
aI1
aI1
aI0
aI0
aI0
aI0
aI0
aI3
aI3
aI3
aI3
aI3
aI3
aI0
aI0
aI1
aI1
aI0
aI0
aI1
aI1
aI0
aI0
aI1
aI1
aI0
aI0
aI0
aI0
aI0
aI0
aI0
aI0
aI0
aI0
aI0
aI0
aI3
aI3
aI0
aI0
aI1
aI1
aI0
aI0
aI0
aI0
aI3
aI3
aI3
aI3
aI3
aI3
aI3
aI3
aI3
aI3
aI3
aI3
aI3
aI3
aI3
aI3
aI3
aI3
aI3
aI3
aI3
aI3
aI3
aI2
aI2
aI2
aI2
aI2
aI2
aI2
aI2
aI2
aI3
aI3
aI3
aI3
aI3
aI3
aI2
aI2
aI2
aI3
aI2
aI3
aI2
aI3
aI2
aI3
aI2
aI3
aI2
aI2
aI2
aI3
aI3
aI0
aI1
aI3
aI0
aI0
aI0
aI0
aI0
aI0
aI1
aI1
aI1
aI0
aI0
aI0
aI0
aI0
aI1
aI1
aI1
aI1
aI1
aI1
aI1
aI1
aI0
aI0
aI0
aI0
aI0
aI0
aI0
aI0
aI0
aI1
aI1
aI1
aI1
aI1
aI1
aI1
aI1
aI1
aI0
aI0
aI1
aI0
aI0
aI0
aI0
aI0
aI0
aI0
aI0
aI1
aI1
aI1
aI1
aI1
aI1
aI1
aI1
aI0
aI0
aI0
aI0
aI0
aI0
aI0
aI0
aI0
aI0
aI0
aI0
aI0
aI0
aI0
aI0
aI0
aI0
aI0
aI0
aI0
aI0
aI0
aI0
aI0
aI0
aI0
aI0
aI0
aI0
aI0
aI0
aI0
aI0
aI0
aI0
aI0
aI0
aI3
aI3
aI2
aI2
aI2
aI2
aI2
aI2
aI2
aI2
aI2
aI2
aI2
aI2
aI2
aI2
aI2
aI2
aI2
aI2
aI3
aI3
aI3
aI3
aI3
aI3
aI0
aI0
aI0
aI0
aI0
aI0
aI0
aI0
aI0
aI0
aI0
aI0
aI0
aI0
aI0
aI0
aI0
aI0
aI3
aI3
aI2
aI2
aI2
aI2
aI2
aI2
aI2
aI2
aI2
aI2
aI2
aI2
aI2
aI2
aI2
aI2
aI2
aI2
aI2
aI2
aI2
aI2
aI2
aI2
aI2
aI2
aI2
aI2
aI2
aI2
aI2
aI2
aI2
aI2
aI2
aI2
aI2
aI2
aI2
aI2
aI2
aI2
aI2
aI2
aI2
aI3
aI3
aI0
aI0
aI0
aI0
aI0
aI0
aI0
aI0
aI0
aI0
aI0
aI0
aI0
aI0
aI0
aI0
aI0
aI0
aI0
aI0
aI0
aI0
aI0
aI0
aI0
aI0
aI0
aI0
aI0
aI0
aI0
aI0
aI0
aI0
aI0
aI0
aI0
aI0
aI0
aI0
aI0
aI0
aI0
aI0
aI0
aI3
aI3
aI3
aI2
aI2
aI2
aI2
aI2
aI2
aI3
aI3
aI3
aI3
aI2
aI2
aI2
aI2
aI1
aI1
aI1
aI0
aI1
aI1
aI2
aI2
aI2
aI2
aI2
aI2
aI3
aI3
aI3
aI3
aI3
aI2
aI2
aI2
aI1
aI1
aI1
aI1
aI0
aI1
aI2
aI2
aI2
aI2
aI3
aI3
aI3
aI3
aI3
aI2
aI2
aI2
aI2
aI2
aI2
aI2
aI2
aI2
aI2
aI2
aI2
aI2
aI2
aI3
aI3
aI0
aI3
aI2
aI2
aI2
aI3
aI3
aI2
aI2
aI3
aI3
aI3
aI3
aI3
aI2
aI1
aI1
aI2
aI3
aI3
aI3
aI3
aI0
aI3
aI3
aI3
aI0
aI0
aI0
aI3
aI3
aI3
aI3
aI3
aI2
aI3
aI0
aI0
aI0
aI0
aI3
aI2
aI2
aI2
aI2
aI2
aI2
aI2
aI1
aI0
aI0
aI1
aI2
aI1
aI2
aI3
aI2
aI2
aI3
aI3
aI3
aI0
aI0
aI0
aI3
aI3
aI3
aI2
aI3
aI3
aI3
aI3
aI3
aI2
aI3
aI2
aI2
aI2
aI3
aI3
aI2
aI2
aI3
aI3
aI3
aI2
aI2
aI2
aI2
aI2
aI2
aI2
aI1
aI2
aI2
aI2
aI3
aI3
aI2
aI3
aI2
aI2
aI2
aI3
aI3
aI2
aI2
aI2
aI2
aI2
aI3
aI2
aI1
aI2
aI1
aI2
aI2
aI2
aI2
aI1
aI2
aI2
aI2
aI3
asg27
I571
sa(dp36
g25
(lp37
I0
aI1
aI1
aI1
aI1
aI0
aI0
aI0
aI0
aI1
aI1
aI0
aI1
aI0
aI1
aI1
aI1
aI2
aI2
aI1
aI2
aI2
aI3
aI2
aI2
aI2
aI1
aI1
aI0
aI1
aI1
aI2
aI1
aI1
aI1
aI1
aI1
aI0
aI0
aI0
aI0
aI0
aI3
aI3
aI3
aI3
aI3
aI3
aI0
aI0
aI1
aI1
aI0
aI0
aI1
aI1
aI0
aI0
aI1
aI1
aI0
aI0
aI0
aI0
aI0
aI0
aI0
aI0
aI0
aI0
aI0
aI0
aI3
aI3
aI0
aI0
aI1
aI1
aI0
aI0
aI0
aI0
aI3
aI3
aI3
aI3
aI3
aI3
aI3
aI3
aI3
aI3
aI3
aI3
aI3
aI3
aI3
aI3
aI3
aI3
aI3
aI3
aI3
aI3
aI3
aI2
aI2
aI2
aI2
aI2
aI2
aI2
aI2
aI2
aI3
aI3
aI3
aI3
aI3
aI3
aI2
aI2
aI2
aI3
aI2
aI3
aI2
aI3
aI2
aI3
aI2
aI3
aI2
aI2
aI3
aI2
aI3
aI0
aI0
aI0
aI0
aI0
aI0
aI0
aI1
aI1
aI1
aI0
aI0
aI0
aI0
aI0
aI1
aI1
aI1
aI1
aI1
aI1
aI1
aI1
aI0
aI0
aI0
aI0
aI0
aI0
aI0
aI0
aI0
asg27
I169
sa(dp38
g25
(lp39
I0
aI1
aI1
aI1
aI1
aI0
aI0
aI0
aI0
aI1
aI1
aI0
aI1
aI0
aI1
aI1
aI1
aI2
aI2
aI1
aI2
aI2
aI3
aI2
aI2
aI2
aI1
aI1
aI0
aI1
aI1
aI2
aI1
aI1
aI1
aI1
aI1
aI0
aI0
aI0
aI0
aI0
aI3
aI3
aI3
aI3
aI3
aI3
aI0
aI0
aI1
aI1
aI0
aI0
aI1
aI1
aI0
aI0
aI1
aI1
aI0
aI0
aI0
aI0
aI0
aI0
aI0
aI0
aI0
aI0
aI0
aI0
aI3
aI3
aI0
aI0
aI1
aI1
aI0
aI0
aI0
aI0
aI3
aI3
aI3
aI3
aI3
aI3
aI3
aI3
aI3
aI3
aI3
aI3
aI3
aI3
aI3
aI3
aI3
aI3
aI3
aI3
aI3
aI3
aI3
aI2
aI2
aI2
aI2
aI2
aI2
aI2
aI2
aI2
aI3
aI3
aI3
aI3
aI3
aI3
aI2
aI2
aI2
aI3
aI2
aI3
aI2
aI3
aI2
aI3
aI2
aI3
aI2
aI2
aI3
aI3
aI0
aI0
aI0
aI0
aI0
aI0
aI1
aI1
aI1
aI0
aI0
aI0
aI0
aI0
aI1
aI1
aI1
aI1
aI1
aI1
aI1
aI1
aI0
aI0
aI0
aI0
aI0
aI0
aI0
aI0
aI0
aI1
aI1
aI1
aI1
aI1
aI1
aI1
aI1
aI1
aI0
aI0
aI1
aI0
aI0
aI0
aI0
aI0
aI0
aI0
aI0
aI1
aI1
aI1
aI1
aI1
aI1
aI1
aI1
aI0
aI0
aI0
aI0
aI0
aI0
aI0
aI0
aI0
aI0
aI0
aI0
aI0
aI0
aI0
aI0
aI0
aI0
aI0
aI0
aI0
aI0
aI0
aI0
aI0
aI0
aI0
aI0
aI0
aI0
aI0
aI0
aI0
aI0
aI0
aI0
aI0
aI0
aI3
aI3
aI2
aI2
aI2
aI2
aI2
aI2
aI2
aI2
aI2
aI2
aI2
aI2
aI2
aI2
aI2
aI2
aI2
aI2
aI3
aI3
aI3
aI3
aI3
aI3
aI0
aI0
aI0
aI0
aI0
aI0
aI0
aI0
aI0
aI0
aI0
aI0
aI0
aI0
aI0
aI0
aI0
aI0
aI3
aI3
aI2
aI2
aI2
aI2
aI2
aI2
aI2
aI2
aI2
aI2
aI2
aI2
aI2
aI2
aI2
aI2
aI2
aI2
aI2
aI2
aI2
aI2
aI2
aI2
aI2
aI2
aI2
aI2
aI2
aI2
aI2
aI2
aI2
aI2
aI2
aI2
aI2
aI2
aI2
aI2
aI2
aI2
aI2
aI2
aI2
aI3
aI3
aI0
aI0
aI0
aI0
aI0
aI0
aI0
aI0
aI0
aI0
aI0
aI0
aI0
aI0
aI0
aI0
aI0
aI0
aI0
aI0
aI0
aI0
aI0
aI0
aI0
aI0
aI0
aI0
aI0
aI0
aI0
aI0
aI0
aI0
aI0
aI0
aI0
aI0
aI0
aI0
aI0
aI0
aI0
aI0
aI0
aI3
aI3
aI3
aI2
aI2
aI2
aI2
aI2
aI2
aI3
aI3
aI3
aI3
aI2
aI2
aI2
aI2
aI1
aI1
aI1
aI0
aI1
aI1
aI2
aI2
aI2
aI2
aI2
aI2
aI3
aI3
aI3
aI3
aI3
aI2
aI2
aI1
aI2
aI1
aI1
aI0
aI1
aI2
aI1
aI0
aI2
aI2
aI2
aI2
aI3
aI3
aI3
aI3
aI3
aI2
aI2
aI2
aI2
aI2
aI2
aI2
aI2
aI2
aI2
aI2
aI2
aI2
aI2
aI3
aI3
aI0
aI3
aI2
aI2
aI2
aI3
aI3
aI2
aI2
aI3
aI3
aI3
aI2
aI2
aI3
aI3
aI3
aI3
aI3
aI0
aI3
aI3
aI0
aI0
aI1
aI0
aI3
aI3
aI3
aI3
aI3
aI3
aI0
aI1
aI0
aI0
aI3
aI0
aI0
aI3
asg27
I481
sa(dp40
g3
(lp41
I0
aI1
aI1
aI1
aI1
aI0
aI0
aI0
aI0
aI1
aI1
aI0
aI1
aI0
aI0
aI0
aI1
aI1
aI1
aI2
aI2
aI2
aI2
aI1
aI2
aI2
aI3
aI2
aI2
aI2
aI1
aI1
aI0
aI1
aI1
aI2
aI1
aI1
aI1
aI1
aI1
aI0
aI0
aI0
aI0
aI0
aI3
aI3
aI3
aI3
aI3
aI3
aI0
aI0
aI1
aI1
aI0
aI0
aI1
aI1
aI0
aI0
aI3
aI3
aI3
aI3
aI3
aI3
aI3
aI3
aI3
aI3
aI3
aI0
aI0
aI1
aI1
aI1
aI1
aI1
aI0
aI0
aI3
aI0
aI0
aI1
aI0
aI0
aI3
aI3
aI3
aI3
aI3
aI0
aI0
aI0
aI0
aI1
aI1
aI1
aI1
aI1
aI1
aI1
aI1
aI1
aI1
aI1
aI0
aI0
aI1
aI1
aI0
aI0
aI0
aI0
aI3
aI3
aI3
aI3
aI3
aI3
aI3
aI3
aI3
aI3
aI3
aI3
aI3
aI3
aI2
aI2
aI2
aI2
aI3
aI3
aI0
aI0
aI3
aI3
aI2
aI2
aI3
aI3
aI3
aI2
aI2
aI2
aI2
aI2
aI2
aI2
aI2
aI2
aI2
aI2
aI2
aI2
aI2
aI2
aI2
aI2
aI2
aI2
aI2
aI2
aI2
aI2
aI2
aI3
aI3
aI3
aI3
aI3
aI3
aI3
aI3
aI0
aI0
aI0
aI3
aI0
aI3
aI0
aI3
aI0
aI3
aI0
aI3
aI0
aI0
aI3
aI0
aI3
aI0
aI0
aI0
aI0
aI0
aI0
aI1
aI1
aI1
aI0
aI0
aI0
aI0
aI0
aI1
aI1
aI1
aI1
aI1
aI1
aI1
aI1
aI0
aI0
aI0
aI0
aI0
aI0
aI0
aI0
aI0
aI1
aI1
aI1
aI1
aI1
aI1
aI1
aI1
aI1
aI0
aI0
aI1
aI0
aI0
aI0
aI0
aI0
aI0
aI0
aI0
aI1
aI1
aI1
aI1
aI1
aI1
aI1
aI1
aI1
aI1
aI1
aI1
aI1
aI1
aI0
aI0
aI1
aI0
aI3
aI0
aI0
aI0
aI1
aI0
aI0
aI0
aI0
aI0
aI0
aI3
aI0
aI0
aI1
aI0
aI0
aI3
aI0
aI1
aI0
aI0
asg5
I285
sa(dp42
g3
(lp43
I1
aI1
aI1
aI1
aI1
aI1
aI1
aI1
aI1
aI1
aI1
aI1
aI2
aI2
aI2
aI2
aI2
aI2
aI2
aI2
aI2
aI2
aI2
aI2
aI2
aI2
aI2
aI2
aI2
aI2
aI2
aI2
aI2
aI2
aI2
aI2
aI2
aI2
aI2
aI3
aI3
aI3
aI3
aI3
aI3
aI3
aI3
aI3
aI3
aI3
aI3
aI3
aI2
aI2
aI2
aI3
aI3
aI0
aI0
aI0
aI0
aI0
aI0
aI0
aI0
aI0
aI0
aI0
aI0
aI0
aI0
aI0
aI0
aI0
aI0
aI0
aI0
aI3
aI3
aI3
aI3
aI3
aI3
aI3
aI3
aI3
aI2
aI2
aI1
aI1
aI1
aI1
aI2
aI2
aI2
aI3
aI2
aI2
aI1
aI1
aI2
aI3
aI3
aI2
aI1
aI1
aI2
aI3
aI3
aI2
aI1
aI2
aI3
aI2
aI2
aI3
aI0
aI3
aI2
aI2
aI2
aI2
aI2
aI2
aI2
aI2
aI2
aI2
aI3
aI3
aI3
aI3
aI3
aI2
aI2
aI1
aI1
aI1
aI2
aI1
aI1
aI2
aI2
aI3
aI3
aI3
aI2
aI3
aI3
aI0
aI3
aI0
aI3
aI3
aI2
aI2
aI2
aI1
aI2
aI1
aI1
aI1
aI1
aI1
aI1
aI1
aI1
aI1
aI1
aI1
aI2
aI2
aI2
aI2
aI3
aI3
aI0
aI3
aI0
aI3
aI3
aI2
aI3
aI2
aI2
aI2
aI1
aI1
aI1
aI1
aI2
aI2
aI3
aI3
aI3
aI3
aI3
aI3
aI3
aI0
aI3
aI3
aI2
aI2
aI2
aI2
aI2
aI2
aI2
aI2
aI1
aI2
aI2
aI2
aI2
aI1
aI2
aI2
aI2
aI1
aI1
aI1
aI2
aI2
aI1
aI2
aI1
aI1
aI1
aI0
aI1
aI1
aI0
aI0
aI0
aI0
aI0
aI1
aI1
aI0
aI0
aI0
aI1
aI0
aI1
aI1
aI0
aI0
aI0
aI3
aI0
aI0
aI0
aI0
aI0
aI0
aI0
aI1
aI1
aI1
aI0
aI0
aI1
aI1
aI0
aI1
aI0
aI0
aI0
aI3
aI0
aI0
aI1
aI2
aI1
aI1
aI0
aI3
aI0
aI1
aI1
aI2
aI2
aI1
aI1
aI0
aI3
aI0
aI0
aI3
aI3
aI3
aI0
aI0
aI0
aI3
aI3
aI0
aI1
aI0
aI1
aI2
aI1
aI0
aI0
aI3
aI0
aI1
aI1
aI1
aI2
aI1
aI1
aI1
aI1
aI0
aI1
aI1
aI1
aI2
aI2
aI3
aI2
aI2
aI3
aI2
aI1
aI2
aI3
aI3
aI3
aI2
aI2
aI1
aI1
aI0
aI1
aI1
aI0
aI0
aI0
aI0
aI1
aI2
aI2
aI2
aI2
aI1
aI1
aI1
aI1
aI0
aI1
aI1
aI0
aI1
aI1
aI0
aI2
aI1
aI1
aI3
aI2
aI0
aI1
aI1
aI2
aI2
aI0
aI1
aI1
aI1
aI0
aI2
aI3
aI2
aI1
aI0
aI2
aI0
aI0
aI0
aI0
aI2
aI0
aI2
aI0
aI3
aI1
aI3
aI1
aI2
aI3
aI2
aI1
aI3
aI3
aI2
aI2
aI1
aI3
aI1
aI0
aI0
aI3
aI2
aI2
aI3
aI1
aI0
aI1
aI0
aI1
aI3
aI2
aI1
aI2
aI1
aI1
aI0
aI0
aI1
aI1
aI1
aI0
aI0
aI0
aI0
aI0
aI0
aI0
aI0
aI0
aI0
aI0
aI0
aI0
aI0
aI1
aI1
aI1
aI1
aI1
aI0
aI0
aI0
aI0
aI3
aI3
aI2
aI1
aI0
aI3
aI3
aI3
aI2
aI3
aI0
aI0
aI0
aI1
aI1
aI1
aI1
aI1
aI0
aI0
aI0
aI0
aI0
aI0
aI3
aI3
aI2
aI1
aI3
aI3
aI3
aI0
aI1
aI3
aI3
aI2
aI0
aI0
aI0
aI0
aI1
aI1
aI1
aI1
aI0
aI0
aI0
aI0
aI0
aI0
aI1
aI1
aI1
aI2
aI2
aI2
aI2
aI2
aI2
aI2
aI2
aI2
aI2
aI2
aI2
aI2
aI2
aI2
aI2
aI2
aI2
aI2
aI2
aI2
aI2
aI2
aI2
aI2
aI2
aI2
aI2
aI2
aI2
aI2
aI2
aI2
aI2
aI2
aI2
aI2
aI2
aI2
aI2
aI2
aI2
aI2
aI2
aI2
aI1
aI1
aI0
aI0
aI0
aI0
aI0
aI0
aI0
aI0
aI0
aI0
aI0
aI0
aI0
aI0
aI0
aI0
aI0
aI0
aI0
aI0
aI0
aI0
aI0
aI0
aI0
aI0
aI0
aI0
aI0
aI0
aI0
aI0
aI0
aI0
aI0
aI0
aI0
aI0
aI0
aI0
aI0
aI0
aI0
aI0
aI0
aI1
aI1
aI1
aI1
aI1
aI1
aI1
aI1
aI1
aI1
aI2
aI2
aI2
aI2
aI2
aI2
aI2
aI2
aI2
aI2
aI2
aI2
aI2
aI2
aI2
aI2
aI2
aI2
aI2
aI2
aI2
aI2
aI2
aI2
aI2
aI2
aI2
aI2
aI2
aI2
aI2
aI2
aI2
aI2
aI2
aI2
aI2
aI2
aI3
aI3
aI3
aI3
aI3
aI3
aI3
aI3
aI2
aI2
aI2
aI2
aI2
aI2
aI2
aI2
aI3
aI2
aI2
aI3
aI3
aI3
aI3
aI3
aI3
aI3
aI3
aI3
aI2
aI2
aI2
aI2
aI2
aI2
aI2
aI2
aI2
aI3
aI3
aI3
aI3
aI3
aI3
aI3
aI3
aI2
aI2
aI2
aI2
aI2
aI3
aI3
aI3
aI2
aI2
aI2
aI2
aI2
aI2
aI1
aI2
aI1
aI0
aI1
aI2
aI1
aI0
aI1
aI1
aI2
aI3
aI2
aI1
aI1
aI0
aI0
aI0
aI3
aI0
aI1
aI1
aI0
aI1
aI1
aI2
aI3
aI2
aI1
aI2
aI2
aI2
aI1
aI0
aI0
aI1
aI2
aI1
aI1
aI1
aI0
aI0
aI0
aI0
aI0
aI0
aI0
aI0
aI0
aI0
aI0
aI0
aI0
aI0
aI0
aI0
aI1
aI2
aI1
aI1
aI0
aI0
aI1
aI1
aI2
aI2
aI1
aI1
aI0
aI0
aI0
aI0
aI1
aI1
aI1
aI1
aI1
aI1
aI1
aI1
aI1
aI1
aI1
aI1
aI1
aI1
aI2
aI2
aI2
aI2
aI3
aI3
aI2
aI2
aI3
aI3
aI3
aI3
aI3
aI3
aI3
aI3
aI3
aI3
aI3
aI2
aI2
aI2
aI2
aI2
aI2
aI2
aI2
aI2
aI2
aI2
aI2
aI1
aI1
aI1
aI1
aI1
aI1
aI1
aI1
aI1
aI1
aI1
aI2
aI2
aI3
aI3
aI2
aI2
aI3
aI3
aI2
aI2
aI1
aI1
aI1
aI1
aI1
aI1
aI2
aI2
aI2
aI2
aI2
aI3
aI3
aI3
aI3
aI3
aI0
aI3
aI3
aI2
aI3
aI3
aI0
aI0
aI0
aI1
aI0
aI0
aI3
aI3
aI3
aI2
aI2
aI2
aI2
aI3
aI3
aI0
aI0
aI0
aI0
aI3
aI3
aI0
aI3
aI3
aI2
aI2
aI2
aI2
aI2
aI3
aI3
aI2
asg5
I891
sa(dp44
g3
(lp45
I0
aI0
aI0
aI0
aI0
aI3
aI0
aI1
aI0
aI0
aI0
aI0
aI0
aI0
aI0
aI0
aI3
aI3
aI3
aI0
aI3
aI3
aI3
aI2
aI3
aI3
aI0
aI0
aI0
aI1
aI1
aI1
aI0
aI1
aI0
aI1
aI1
aI1
aI1
aI0
aI0
aI0
aI0
aI0
aI0
aI1
aI1
aI1
aI1
aI1
aI1
aI1
aI1
aI1
aI1
aI1
aI1
aI1
aI1
aI1
aI1
aI1
aI0
aI0
aI0
aI0
aI0
aI1
aI1
aI0
aI0
aI0
aI1
aI0
aI0
aI0
aI0
aI1
aI0
aI0
aI0
aI0
aI0
aI0
aI0
aI1
aI1
aI1
aI0
aI0
aI0
aI0
aI0
aI0
aI0
aI0
aI0
aI0
aI0
aI0
aI0
aI0
aI1
aI1
aI1
aI1
aI1
aI0
aI0
aI0
aI3
aI3
aI3
aI3
aI0
aI3
aI0
aI0
aI1
aI1
aI1
aI1
aI1
aI0
aI0
aI0
aI0
aI0
aI0
aI3
aI2
aI3
aI0
aI3
aI3
aI2
aI3
aI0
aI0
aI0
aI0
aI1
aI1
aI1
aI1
aI0
aI0
aI0
aI0
aI0
aI0
aI1
aI1
aI1
aI2
aI2
aI2
aI2
aI2
aI2
aI2
aI2
aI2
aI2
aI2
aI2
aI2
aI2
aI2
aI2
aI2
aI2
aI2
aI2
aI2
aI2
aI2
aI2
aI2
aI2
aI2
aI2
aI2
aI2
aI2
aI2
aI2
aI2
aI2
aI2
aI2
aI2
aI2
aI2
aI2
aI2
aI2
aI2
aI2
aI1
aI1
aI0
aI0
aI0
aI0
aI0
aI0
aI0
aI0
aI0
aI0
aI0
aI0
aI0
aI0
aI0
aI0
aI0
aI0
aI0
aI0
aI0
aI0
aI0
aI0
aI0
aI0
aI0
aI0
aI0
aI0
aI0
aI0
aI0
aI0
aI0
aI0
aI0
aI0
aI0
aI0
aI0
aI0
aI0
aI0
aI0
aI1
aI1
aI1
aI1
aI1
aI1
aI1
aI1
aI1
aI1
aI2
aI2
aI2
aI2
aI2
aI2
aI2
aI2
aI2
aI2
aI2
aI2
aI2
aI2
aI2
aI2
aI2
aI2
aI2
aI2
aI2
aI2
aI2
aI2
aI2
aI2
aI2
aI2
aI2
aI2
aI2
aI2
aI2
aI2
aI2
aI2
aI2
aI2
aI3
aI3
aI0
aI0
aI3
aI3
aI3
aI3
aI3
aI3
aI1
aI3
aI1
aI1
aI1
aI3
aI1
aI1
aI3
aI3
aI1
aI3
aI3
aI1
aI1
aI3
aI1
aI3
aI3
aI1
aI1
aI3
aI1
aI1
aI3
aI3
aI1
aI3
aI3
aI3
aI1
aI3
aI1
aI1
aI3
aI3
aI2
aI2
aI2
aI2
aI2
aI2
aI2
aI2
aI2
aI2
aI3
aI2
aI2
aI3
aI3
aI3
aI3
aI3
aI3
aI3
aI3
aI3
aI2
aI2
aI2
aI2
aI2
aI2
aI2
aI2
aI2
aI3
aI3
aI3
aI3
aI3
aI3
aI3
aI3
aI2
aI2
aI2
aI2
aI2
aI3
aI3
aI3
aI3
aI3
aI3
aI3
aI2
aI1
aI2
aI2
aI2
aI2
aI2
aI1
aI1
aI2
aI3
aI3
aI1
aI0
aI3
aI1
aI1
aI1
aI0
aI0
aI0
aI0
aI0
aI2
aI0
aI0
aI1
aI1
aI1
aI0
aI0
aI2
aI0
aI2
aI2
aI3
aI1
aI0
aI2
aI0
aI2
aI3
aI1
aI3
aI1
aI3
aI3
aI3
aI2
aI2
aI2
aI0
aI2
aI2
aI2
aI0
aI2
aI0
aI2
aI0
aI0
aI2
aI0
aI0
aI0
aI2
aI2
aI2
aI0
aI0
aI0
aI2
aI2
aI0
aI0
aI0
aI3
aI3
aI1
aI3
aI3
aI3
aI3
aI2
aI2
aI1
aI1
aI0
aI2
aI2
aI0
aI3
aI0
aI3
aI3
aI3
aI0
aI1
aI1
aI1
aI1
aI3
aI3
aI1
aI2
aI2
aI3
aI2
aI2
aI2
aI2
aI2
aI2
aI2
aI2
aI2
aI2
aI2
aI2
aI2
aI2
aI2
aI3
aI3
aI0
aI0
aI0
aI0
aI0
aI0
aI0
aI0
aI0
aI0
aI0
aI0
aI0
aI0
aI0
aI0
aI0
aI2
aI2
aI2
aI0
aI0
aI0
aI1
aI1
aI2
aI1
aI2
aI1
aI3
aI1
aI2
aI0
aI0
aI0
aI3
aI3
aI1
aI2
aI2
aI1
aI2
aI2
aI2
aI0
aI2
aI2
aI2
aI1
aI1
aI1
aI1
aI1
aI2
aI2
aI1
aI2
aI1
aI2
aI1
aI2
aI1
aI2
aI1
aI2
aI2
aI2
aI3
aI3
aI3
aI3
aI3
aI3
aI3
aI3
aI3
aI0
aI0
aI0
aI0
aI0
aI0
aI0
aI3
aI1
aI2
aI2
aI0
aI2
aI0
aI2
aI2
aI2
aI2
aI0
aI0
aI2
aI2
aI2
aI0
aI2
aI0
aI0
aI0
aI2
aI0
aI2
aI2
aI0
aI2
aI2
aI2
aI1
aI1
aI1
aI3
aI1
aI1
aI1
aI3
aI1
aI1
aI1
aI3
aI3
aI3
aI3
aI1
aI3
aI3
aI1
aI1
aI3
aI1
aI3
aI1
aI3
aI3
aI1
aI1
aI1
aI1
aI1
aI1
aI1
aI1
aI1
aI1
aI1
aI1
aI1
aI0
aI0
aI0
aI0
aI0
aI0
aI0
aI0
aI0
aI0
aI0
aI0
aI0
aI0
aI0
aI0
aI0
aI0
aI0
aI0
aI0
aI0
aI0
aI0
aI0
aI0
aI0
aI0
aI1
aI1
aI2
aI2
aI2
aI2
aI1
aI1
aI1
aI0
aI0
aI1
aI1
aI2
aI2
aI1
aI1
aI0
aI0
aI0
aI0
aI0
aI0
aI1
aI0
aI0
aI0
aI0
aI0
aI0
aI0
aI0
aI1
aI1
aI1
aI1
aI1
aI1
aI1
aI1
aI1
aI1
aI1
aI1
aI2
aI2
aI3
aI3
aI3
aI3
aI3
aI3
aI3
aI3
aI3
aI2
aI2
aI1
aI1
aI1
aI1
aI1
aI1
aI1
aI1
aI1
aI2
aI2
aI3
aI3
aI3
aI3
aI3
aI3
aI3
aI3
aI3
aI2
aI2
aI1
aI1
aI1
aI1
aI1
aI1
aI1
aI1
aI1
aI1
aI2
aI2
aI2
aI2
aI2
aI2
aI3
aI3
aI2
aI2
aI3
aI3
aI3
aI3
aI3
aI3
aI3
aI3
aI3
aI3
aI3
aI2
aI2
aI1
aI1
aI1
aI1
aI1
aI1
aI1
aI1
aI1
aI1
aI1
aI1
aI1
aI0
aI0
aI3
aI3
aI3
aI3
aI3
aI3
aI3
aI1
aI3
aI3
aI1
aI1
aI3
aI1
aI3
aI1
aI1
aI1
aI3
aI1
aI3
aI3
aI1
aI1
aI3
aI3
aI1
aI1
aI1
aI1
aI1
aI1
aI3
aI1
aI3
aI1
aI3
aI3
aI3
aI3
aI3
aI3
aI3
aI3
aI3
aI3
aI3
aI1
aI1
aI3
aI3
aI3
aI3
aI2
aI0
aI2
aI0
aI1
aI1
aI1
aI1
aI3
aI1
aI1
aI3
aI3
aI3
aI1
aI1
aI1
aI1
aI1
aI3
aI1
aI3
aI3
aI1
aI1
aI1
aI1
aI1
aI3
aI1
aI1
aI1
aI1
aI2
aI2
aI2
aI2
aI2
aI2
aI2
aI2
aI2
aI2
aI2
aI2
aI3
aI3
aI2
aI2
aI3
aI3
aI2
aI2
aI3
aI3
aI2
aI2
aI1
aI1
aI1
aI1
aI1
aI1
aI2
aI2
aI2
aI2
aI2
aI3
aI3
aI3
aI3
aI3
aI0
aI3
aI3
aI2
aI3
aI3
aI0
aI0
aI0
aI1
aI0
aI0
aI3
aI3
aI3
aI2
aI2
aI2
aI2
aI3
aI3
aI0
aI0
aI0
aI0
aI3
aI3
aI0
aI3
aI3
aI2
aI2
aI2
aI2
aI2
aI3
aI3
aI2
asg5
I985
saa(lp46
g6
ag10
a(dp47
g3
(lp48
sg5
I0
sa(dp49
g3
(lp50
I3
aI3
aI3
aI2
aI2
aI1
aI1
aI1
aI1
aI1
aI0
aI1
aI1
aI1
aI0
aI0
aI3
aI0
aI3
aI3
aI3
aI3
aI3
aI3
aI3
aI3
aI2
aI3
aI2
aI2
aI2
aI2
aI2
aI2
aI1
aI2
aI1
aI1
aI0
aI1
aI0
aI1
aI1
aI1
aI1
aI2
aI1
aI1
aI1
aI1
aI1
aI0
aI0
aI0
aI0
aI0
aI0
aI0
aI0
aI0
aI3
aI3
aI3
aI3
aI3
aI3
aI3
aI3
aI3
aI3
aI3
aI3
aI3
aI3
aI3
aI2
aI2
aI2
aI2
aI2
aI2
aI2
aI2
aI2
aI2
aI2
aI2
aI2
aI2
aI2
aI1
aI1
aI1
aI1
aI1
aI2
aI2
aI3
aI3
aI3
aI3
aI3
aI2
aI2
aI1
aI1
aI1
aI1
aI1
aI2
aI2
aI3
aI3
aI3
aI3
aI3
aI2
aI2
aI1
aI1
aI1
aI1
aI1
aI2
aI2
aI3
aI3
aI3
aI3
aI3
aI2
aI2
aI1
aI1
aI1
aI1
aI1
aI2
aI2
aI3
aI3
aI3
aI3
aI3
aI2
aI2
aI2
aI1
aI1
aI1
aI1
aI1
aI2
aI2
aI3
aI3
aI2
aI2
aI1
aI1
aI1
aI2
aI1
aI1
aI2
aI2
aI3
aI3
aI3
aI2
aI3
aI3
aI0
aI3
aI0
aI3
aI3
aI2
aI2
aI2
aI1
aI2
aI1
aI1
aI1
aI1
aI1
aI1
aI1
aI1
aI1
aI1
aI1
aI2
aI2
aI2
aI2
aI3
aI3
aI0
aI3
aI0
aI3
aI3
aI2
aI3
aI2
aI2
aI2
aI1
aI1
aI1
aI1
aI2
aI2
aI3
aI3
aI3
aI3
aI3
aI3
aI3
aI0
aI3
aI3
aI2
aI2
aI2
aI2
aI2
aI2
aI2
aI2
aI1
aI2
aI2
aI2
aI2
aI1
aI2
aI2
aI2
aI1
aI1
aI1
aI2
aI2
aI1
aI2
aI1
aI1
aI1
aI1
aI1
aI0
aI0
aI0
aI0
aI0
aI0
aI1
aI1
aI0
aI0
aI0
aI1
aI0
aI1
aI1
aI0
aI0
aI0
aI3
aI0
aI0
aI0
aI0
aI0
aI0
aI0
aI1
aI1
aI1
aI0
aI0
aI1
aI1
aI0
aI1
aI0
aI0
aI1
aI0
aI1
aI0
aI0
aI0
aI3
aI2
aI3
aI0
aI0
aI1
aI1
aI0
aI1
aI2
aI2
aI2
aI2
aI1
aI2
aI1
aI2
aI1
aI0
aI1
aI0
aI1
aI0
aI0
aI1
aI1
aI0
aI0
aI1
aI2
aI1
aI1
aI1
aI1
aI1
aI0
aI0
aI0
aI0
aI1
aI2
aI1
aI1
aI0
aI1
aI2
aI1
aI1
aI1
aI0
aI1
aI2
aI1
aI2
aI1
aI2
aI2
aI2
aI2
aI3
aI2
aI3
aI3
aI2
aI1
aI2
aI2
aI2
aI2
aI3
aI3
aI2
aI2
aI1
aI1
aI2
aI2
aI2
aI1
aI1
aI0
aI0
aI0
aI0
aI1
aI0
aI0
aI0
aI0
aI1
aI0
aI0
aI0
aI0
aI0
aI0
aI0
aI1
aI1
aI1
aI0
aI0
aI0
aI0
aI0
aI0
aI0
aI0
aI0
aI0
aI0
aI0
aI0
aI0
aI1
aI1
aI1
aI1
aI1
aI0
aI0
aI0
aI3
aI0
aI3
aI3
aI3
aI2
aI3
aI0
aI0
aI0
aI1
aI1
aI1
aI1
aI1
aI0
aI0
aI0
aI0
aI0
aI3
aI3
aI3
aI3
aI0
aI3
aI0
aI0
aI0
aI1
aI1
aI1
aI1
aI0
aI0
aI0
aI0
aI0
aI0
aI1
aI1
aI1
aI2
aI2
aI2
aI2
aI2
aI2
aI2
aI2
aI2
aI2
aI2
aI2
aI2
aI2
aI2
aI2
aI2
aI2
aI2
aI2
aI2
aI2
aI2
aI2
aI2
aI2
aI2
aI2
aI2
aI2
aI2
aI2
aI2
aI2
aI2
aI2
aI2
aI2
aI2
aI2
aI2
aI2
aI2
aI2
aI2
aI1
aI1
aI0
aI0
aI0
aI0
aI0
aI0
aI0
aI0
aI0
aI0
aI0
aI0
aI0
aI0
aI0
aI0
aI0
aI0
aI0
aI0
aI0
aI0
aI0
aI0
aI0
aI0
aI0
aI0
aI0
aI0
aI0
aI0
aI0
aI0
aI0
aI0
aI0
aI0
aI0
aI0
aI0
aI0
aI0
aI0
aI0
aI1
aI1
aI2
aI2
aI2
aI2
aI2
aI2
aI2
aI2
aI2
aI2
aI2
aI2
aI2
aI2
aI2
aI2
aI2
aI2
aI1
aI1
aI1
aI1
aI1
aI1
aI0
aI0
aI0
aI0
aI0
aI0
aI0
aI0
aI0
aI0
aI0
aI0
aI0
aI0
aI0
aI0
aI0
aI0
aI1
aI1
aI1
aI1
aI2
aI2
aI2
aI2
aI2
aI2
aI2
aI2
aI2
aI2
aI2
aI2
aI2
aI2
aI2
aI2
aI2
aI2
aI2
aI2
aI2
aI2
aI2
aI2
aI2
aI2
aI2
aI2
aI2
aI2
aI2
aI2
aI2
aI2
aI2
aI2
aI2
aI2
aI3
aI3
aI3
aI3
aI3
aI3
aI3
aI3
aI3
aI3
aI2
aI2
aI2
aI2
aI2
aI2
aI2
aI2
aI3
aI2
aI2
aI3
aI3
aI3
aI3
aI3
aI3
aI3
aI3
aI3
aI2
aI2
aI2
aI2
aI2
aI2
aI2
aI2
aI2
aI3
aI3
aI3
aI3
aI3
aI3
aI3
aI3
aI2
aI2
aI2
aI2
aI2
aI3
aI3
aI3
aI2
aI2
aI2
aI2
aI2
aI2
aI1
aI1
aI2
aI1
aI1
aI1
aI0
aI1
aI0
aI0
aI1
aI0
aI1
aI1
aI1
aI2
aI1
aI2
aI3
aI2
aI2
aI1
aI1
aI1
aI1
aI1
aI0
aI3
aI3
aI0
aI0
aI0
aI0
aI0
aI0
aI0
aI0
aI0
aI0
aI0
aI0
aI0
aI0
aI0
aI0
aI0
aI0
aI1
aI1
aI1
aI1
aI1
aI1
aI2
aI2
aI1
aI2
aI2
aI1
aI1
aI0
aI0
aI0
aI0
aI1
aI1
aI1
aI1
aI1
aI1
aI1
aI1
aI1
aI1
aI1
aI1
aI1
aI1
aI2
aI2
aI2
aI2
aI3
aI3
aI2
aI2
aI1
aI1
aI2
aI2
aI2
aI2
aI2
aI2
aI2
aI2
aI2
aI2
aI2
aI2
aI3
aI3
aI3
aI3
aI3
aI3
aI3
aI3
aI3
aI3
aI3
aI3
aI3
asg5
I813
sa(dp51
g25
(lp52
I1
aI1
aI1
aI1
aI1
aI1
aI1
aI1
aI0
aI0
aI1
aI1
aI1
aI2
aI2
aI1
aI1
aI0
aI0
aI0
aI0
aI0
aI0
aI0
aI0
aI0
aI0
aI0
aI0
aI3
aI3
aI0
aI0
aI1
aI1
aI0
aI0
aI0
aI0
aI3
aI3
aI3
aI3
aI3
aI3
aI3
aI3
aI3
aI3
aI3
aI3
aI3
aI3
aI3
aI3
aI3
aI3
aI3
aI3
aI3
aI3
aI3
aI2
aI2
aI2
aI2
aI2
aI2
aI2
aI2
aI2
aI3
aI3
aI3
aI3
aI3
aI3
aI2
aI2
aI2
aI3
aI2
aI3
aI2
aI3
aI2
aI3
aI2
aI3
aI2
aI2
aI3
aI3
aI0
aI0
aI0
aI0
aI0
aI0
aI1
aI1
aI1
aI0
aI0
aI0
aI0
aI0
aI1
aI1
aI1
aI1
aI1
aI1
aI1
aI1
aI0
aI0
aI0
aI0
aI0
aI0
aI0
aI0
aI0
aI1
aI1
aI1
aI1
aI1
aI1
aI1
aI1
aI1
aI0
aI0
aI1
aI0
aI0
aI0
aI0
aI0
aI0
aI0
aI0
aI1
aI1
aI1
aI1
aI1
aI1
aI1
aI1
aI0
aI0
aI0
aI0
aI0
aI0
aI0
aI0
aI0
aI0
aI0
aI0
aI0
aI0
aI0
aI0
aI0
aI0
aI0
aI0
aI0
aI0
aI0
aI0
aI0
aI0
aI0
aI0
aI0
aI0
aI0
aI0
aI0
aI0
aI0
aI0
aI0
aI0
aI1
aI1
aI1
aI1
aI1
aI1
aI1
asg27
I197
sa(dp53
g3
(lp54
I2
aI1
aI2
aI2
aI2
aI1
aI0
aI0
aI1
aI1
aI1
aI0
aI0
aI1
aI1
aI1
aI1
aI0
aI0
aI0
aI0
aI0
aI0
aI0
aI0
aI0
aI0
aI0
aI0
aI0
aI0
aI1
aI1
aI1
aI0
aI0
aI1
aI1
aI2
aI2
aI1
aI1
aI0
aI0
aI0
aI0
aI1
aI1
aI1
aI1
aI1
aI1
aI1
aI1
aI1
aI1
aI1
aI1
aI1
aI1
aI2
aI2
aI2
aI2
aI3
aI3
aI2
aI2
aI1
aI1
aI2
aI2
aI3
aI3
aI3
aI3
aI3
aI2
aI2
aI2
aI2
aI2
aI2
aI2
aI2
aI2
aI2
aI3
aI3
aI3
aI3
aI3
aI3
aI3
aI3
asg5
I95
sa(dp55
g3
(lp56
I0
aI0
aI1
aI1
aI1
aI1
aI1
aI0
aI0
aI3
aI0
aI0
aI1
aI0
aI0
aI3
aI3
aI3
aI3
aI3
aI0
aI0
aI0
aI0
aI1
aI1
aI1
aI1
aI1
aI1
aI1
aI1
aI1
aI1
aI1
aI0
aI0
aI1
aI1
aI0
aI0
aI0
aI0
aI3
aI3
aI3
aI3
aI3
aI3
aI3
aI3
aI3
aI3
aI3
aI3
aI3
aI3
aI2
aI2
aI2
aI2
aI3
aI3
aI0
aI0
aI3
aI3
aI2
aI2
aI3
aI3
aI3
aI2
aI2
aI2
aI2
aI2
aI2
aI2
aI2
aI2
aI2
aI2
aI2
aI2
aI2
aI2
aI2
aI2
aI2
aI2
aI2
aI2
aI2
aI2
aI2
aI3
aI3
aI3
aI3
aI3
aI3
aI3
aI3
aI0
aI0
aI0
aI3
aI0
aI3
aI0
aI3
aI0
aI3
aI0
aI3
aI0
aI0
aI1
aI1
aI1
aI0
aI1
aI0
aI0
aI1
aI0
aI1
aI1
aI1
aI2
aI2
aI2
aI2
aI1
aI1
aI1
aI0
aI0
aI0
aI0
aI0
aI0
aI0
aI0
aI0
aI0
aI3
aI3
aI3
aI3
aI3
aI3
aI2
aI2
aI2
aI3
aI2
aI3
aI2
aI3
aI2
aI3
aI2
aI3
aI2
aI2
aI3
aI2
aI3
aI0
aI0
aI0
aI0
aI0
aI0
aI0
aI1
aI1
aI1
aI0
aI0
aI0
aI0
aI0
aI1
aI1
aI1
aI1
aI1
aI1
aI1
aI1
aI0
aI0
aI0
aI0
aI0
aI0
aI0
aI0
aI0
aI1
aI1
aI1
aI1
aI1
aI1
aI1
aI1
aI1
aI0
aI0
aI1
aI0
aI0
aI0
aI0
aI0
aI0
aI0
aI0
aI1
aI1
aI1
aI1
aI1
aI1
aI1
aI1
aI1
aI1
aI0
aI0
aI0
aI0
aI0
aI0
aI0
aI0
aI0
aI0
aI0
aI0
aI0
aI0
aI0
aI0
aI0
aI0
aI0
aI0
aI0
aI0
aI0
aI0
aI0
aI0
aI0
aI0
aI0
aI0
aI0
aI0
aI0
aI0
aI0
aI0
aI0
aI0
aI3
aI3
aI3
aI3
aI2
aI2
aI2
aI2
aI2
aI2
aI2
aI2
aI2
aI2
aI2
aI2
aI2
aI2
aI2
aI2
aI2
aI2
aI3
aI3
aI3
aI3
aI3
aI3
aI0
aI0
aI0
aI0
aI0
aI0
aI0
aI0
aI0
aI0
aI0
aI0
aI0
aI0
aI0
aI0
aI0
aI0
aI3
aI3
aI2
aI2
aI2
aI2
aI2
aI2
aI2
aI2
aI2
aI2
aI2
aI2
aI2
aI2
aI2
aI2
aI2
aI2
aI2
aI2
aI2
aI2
aI2
aI2
aI2
aI2
aI2
aI2
aI2
aI2
aI2
aI2
aI2
aI2
aI2
aI2
aI2
aI2
aI2
aI2
aI2
aI2
aI2
aI2
aI2
aI3
aI3
aI0
aI0
aI0
aI0
aI0
aI0
aI0
aI0
aI0
aI0
aI0
aI0
aI0
aI0
aI0
aI0
aI0
aI0
aI0
aI0
aI0
aI0
aI0
aI0
aI0
aI0
aI0
aI0
aI0
aI0
aI0
aI0
aI0
aI0
aI0
aI0
aI0
aI0
aI0
aI0
aI0
aI0
aI0
aI0
aI0
aI3
aI3
aI3
aI2
aI2
aI2
aI2
aI2
aI2
aI3
aI3
aI3
aI3
aI2
aI2
aI2
aI1
aI2
aI1
aI1
aI1
aI1
aI2
aI2
aI2
aI2
aI2
aI3
aI3
aI3
aI3
aI3
aI2
aI2
aI2
aI1
aI1
aI1
aI1
aI1
aI2
aI2
aI2
aI3
aI3
aI3
aI3
aI3
aI2
aI2
aI2
aI2
aI2
aI2
aI2
aI2
aI2
aI2
aI2
aI2
aI2
aI2
aI3
aI3
aI3
aI2
aI2
aI3
aI3
aI3
aI0
aI0
aI0
aI3
aI2
aI3
aI2
aI3
aI3
aI2
aI1
aI1
aI1
aI0
aI3
aI1
aI2
aI2
aI1
aI2
aI2
aI1
aI0
aI0
aI0
aI0
aI0
aI0
aI0
aI3
aI3
aI3
aI2
aI3
aI0
aI3
aI2
aI2
aI3
aI2
aI3
aI0
aI0
aI1
aI0
aI3
aI3
aI3
aI3
aI2
aI2
aI1
aI2
aI2
aI3
aI3
aI3
aI3
aI3
aI2
aI3
aI0
aI0
aI3
aI2
aI2
aI3
aI3
aI3
aI2
aI1
aI2
aI3
aI3
aI3
aI3
aI3
aI3
aI3
aI2
aI2
aI2
aI3
aI2
aI3
aI2
aI3
aI3
aI2
aI2
aI3
aI3
aI3
aI2
aI2
aI2
aI2
aI2
aI2
aI2
aI1
aI2
aI2
aI2
aI3
aI3
aI2
aI3
aI2
aI2
aI2
aI3
aI3
aI2
aI2
aI2
aI2
aI2
aI2
aI3
aI3
aI3
aI3
aI3
aI0
aI3
aI0
aI0
aI3
aI3
aI3
aI0
aI0
aI0
aI3
aI3
aI0
aI0
aI1
aI0
aI0
aI3
aI0
aI0
aI0
aI0
aI0
aI0
aI0
aI0
aI1
aI1
aI2
aI1
aI1
aI1
aI1
aI1
aI1
aI1
aI0
aI0
aI3
aI3
aI3
aI3
aI0
aI0
aI0
aI3
aI2
aI3
aI2
aI3
aI3
aI0
aI3
aI0
asg5
I658
sa(dp57
g3
(lp58
I1
aI2
aI2
aI2
aI2
aI2
aI2
aI2
aI1
aI1
aI1
aI1
aI1
aI1
aI1
aI1
aI1
aI0
aI0
aI0
aI3
aI0
aI3
aI0
aI3
aI0
aI3
aI0
aI3
aI0
aI0
aI0
aI0
aI0
aI1
aI0
aI1
aI0
aI1
aI0
aI1
aI0
aI1
aI0
aI0
aI0
aI1
aI1
aI1
aI1
aI1
aI1
aI0
aI0
aI0
aI0
aI0
aI0
aI0
aI0
aI0
aI1
aI1
aI1
aI1
aI1
aI1
aI2
aI2
aI1
aI2
aI2
aI1
aI1
aI0
aI0
aI0
aI0
aI1
aI1
aI1
aI1
aI1
aI1
aI1
aI1
aI1
aI1
aI1
aI1
aI1
aI1
aI2
aI2
aI2
aI2
aI3
aI3
aI2
aI2
aI1
aI1
aI2
aI2
aI2
aI2
aI2
aI2
aI2
aI2
aI2
aI2
aI2
aI2
aI3
aI3
aI3
aI3
aI3
aI3
aI3
aI3
aI3
aI3
aI3
aI3
aI3
asg5
I127
sa(dp59
g3
(lp60
I1
aI0
aI0
aI1
aI1
aI1
aI0
aI1
aI0
aI1
aI1
aI1
aI1
aI0
aI0
aI0
aI0
aI0
aI0
aI1
aI1
aI1
aI1
aI1
aI1
aI1
aI1
aI1
aI1
aI1
aI1
aI1
aI1
aI1
aI1
aI1
aI0
aI0
aI0
aI0
aI0
aI1
aI1
aI2
aI2
aI2
aI2
aI2
aI1
aI1
aI1
aI0
aI0
aI1
aI0
aI0
aI0
aI0
aI0
aI0
aI1
aI1
aI1
aI0
aI1
aI1
aI0
aI0
aI3
aI3
aI3
aI3
aI3
aI0
aI0
aI0
aI1
aI1
aI1
aI1
aI1
aI1
aI0
aI0
aI0
aI0
aI0
aI0
aI0
aI0
aI0
aI0
aI0
aI0
aI0
aI0
aI0
aI0
aI3
aI0
aI3
aI3
aI2
aI2
aI2
aI2
aI2
aI2
aI2
aI2
aI2
aI2
aI2
aI2
aI2
aI2
aI2
aI3
aI3
aI0
aI0
aI0
aI0
aI0
aI0
aI0
aI0
aI0
aI0
aI0
aI0
aI0
aI0
aI0
aI0
aI0
aI1
aI1
aI1
aI1
aI1
aI0
aI0
aI0
aI0
aI3
aI3
aI3
aI3
aI2
aI3
aI0
aI0
aI0
aI1
aI1
aI1
aI1
aI1
aI0
aI0
aI0
aI0
aI0
aI3
aI3
aI3
aI3
aI0
aI3
aI0
aI0
aI0
aI1
aI1
aI1
aI1
aI0
aI0
aI0
aI0
aI0
aI0
aI1
aI1
aI1
aI2
aI2
aI2
aI2
aI2
aI2
aI2
aI2
aI2
aI2
aI2
aI2
aI2
aI2
aI2
aI2
aI2
aI2
aI2
aI2
aI2
aI2
aI2
aI2
aI2
aI2
aI2
aI2
aI2
aI2
aI2
aI2
aI2
aI2
aI2
aI2
aI2
aI2
aI2
aI2
aI2
aI2
aI2
aI2
aI2
aI1
aI1
aI0
aI0
aI0
aI0
aI0
aI0
aI0
aI0
aI0
aI0
aI0
aI0
aI0
aI0
aI0
aI0
aI0
aI0
aI0
aI0
aI0
aI0
aI0
aI0
aI0
aI0
aI0
aI0
aI0
aI0
aI0
aI0
aI0
aI0
aI0
aI0
aI0
aI0
aI0
aI0
aI0
aI0
aI0
aI0
aI0
aI1
aI1
aI1
aI1
aI1
aI1
aI1
aI1
aI1
aI1
aI2
aI2
aI2
aI2
aI2
aI2
aI2
aI2
aI2
aI2
aI2
aI2
aI2
aI2
aI2
aI2
aI2
aI2
aI2
aI2
aI2
aI2
aI2
aI2
aI2
aI2
aI2
aI2
aI2
aI2
aI2
aI2
aI2
aI2
aI2
aI2
aI2
aI2
aI3
aI3
aI3
aI3
aI3
aI3
aI3
aI3
aI2
aI2
aI2
aI2
aI2
aI2
aI2
aI2
aI3
aI2
aI2
aI3
aI3
aI3
aI3
aI3
aI3
aI3
aI3
aI3
aI2
aI2
aI2
aI2
aI2
aI2
aI2
aI2
aI2
aI3
aI3
aI3
aI3
aI3
aI3
aI3
aI3
aI2
aI2
aI2
aI2
aI2
aI3
aI3
aI3
aI2
aI2
aI2
aI2
aI2
aI2
aI1
aI1
aI0
aI0
aI1
aI0
aI1
aI0
aI1
aI0
aI1
aI0
aI1
aI0
aI0
aI0
aI1
aI1
aI1
aI1
aI1
aI1
aI0
aI0
aI0
aI0
aI0
aI0
aI0
aI0
aI0
aI1
aI1
aI1
aI1
aI1
aI1
aI2
aI2
aI1
aI2
aI2
aI1
aI1
aI0
aI0
aI0
aI0
aI1
aI1
aI1
aI1
aI1
aI1
aI1
aI1
aI1
aI1
aI1
aI1
aI1
aI1
aI2
aI2
aI2
aI2
aI3
aI3
aI2
aI2
aI3
aI3
aI3
aI3
aI3
aI3
aI3
aI3
aI3
aI3
aI3
aI2
aI2
aI2
aI2
aI1
aI1
aI1
aI1
aI1
aI2
aI2
aI3
aI2
aI2
aI1
aI2
aI2
aI3
aI3
aI3
aI3
aI3
aI2
aI2
asg5
I490
sa(dp61
g3
(lp62
I3
aI3
aI3
aI3
aI3
aI0
aI0
aI1
aI1
aI1
aI1
aI1
aI0
aI0
aI0
aI0
aI0
aI3
aI3
aI3
aI3
aI0
aI3
aI0
aI0
aI0
aI1
aI1
aI1
aI1
aI0
aI0
aI0
aI0
aI0
aI0
aI1
aI1
aI1
aI2
aI2
aI2
aI2
aI2
aI2
aI2
aI2
aI2
aI2
aI2
aI2
aI2
aI2
aI2
aI2
aI2
aI2
aI2
aI2
aI2
aI2
aI2
aI2
aI2
aI2
aI2
aI2
aI2
aI2
aI2
aI2
aI2
aI2
aI2
aI2
aI2
aI2
aI2
aI2
aI2
aI2
aI2
aI2
aI2
aI1
aI1
aI0
aI0
aI0
aI0
aI0
aI0
aI0
aI0
aI0
aI0
aI0
aI0
aI0
aI0
aI0
aI0
aI0
aI0
aI0
aI0
aI0
aI0
aI0
aI0
aI0
aI0
aI0
aI0
aI0
aI0
aI0
aI0
aI0
aI0
aI0
aI0
aI0
aI0
aI0
aI0
aI0
aI0
aI0
aI0
aI0
aI1
aI1
aI1
aI1
aI1
aI1
aI1
aI1
aI1
aI1
aI2
aI2
aI2
aI2
aI2
aI2
aI2
aI2
aI2
aI2
aI2
aI2
aI2
aI2
aI2
aI2
aI2
aI2
aI2
aI2
aI2
aI2
aI2
aI2
aI2
aI2
aI2
aI2
aI2
aI2
aI2
aI2
aI2
aI2
aI2
aI2
aI2
aI2
aI3
aI3
aI0
aI0
aI3
aI3
aI3
aI3
aI3
aI3
aI2
aI2
aI2
aI2
aI2
aI2
aI2
aI2
aI2
aI2
aI3
aI2
aI2
aI3
aI3
aI3
aI3
aI3
aI3
aI3
aI3
aI3
aI2
aI2
aI2
aI2
aI2
aI2
aI2
aI2
aI2
aI3
aI3
aI3
aI3
aI3
aI3
aI3
aI3
aI2
aI2
aI2
aI2
aI2
aI3
aI3
aI3
aI2
aI2
aI2
aI2
aI2
aI2
aI2
aI1
aI1
aI2
aI2
aI1
aI2
aI1
aI2
aI1
aI2
aI1
aI2
aI1
aI2
aI2
aI2
aI1
aI1
aI1
aI1
aI1
aI1
aI0
aI0
aI0
aI0
aI0
aI0
aI0
aI0
aI0
aI0
aI0
aI0
aI0
aI0
aI0
aI0
aI0
aI0
aI0
aI0
aI0
aI0
aI0
aI0
aI0
aI0
aI0
aI0
aI1
aI1
aI1
aI1
aI1
aI1
aI2
aI2
aI1
aI2
aI2
aI1
aI1
aI0
aI0
aI0
aI0
aI1
aI1
aI1
aI1
aI1
aI1
aI1
aI1
aI1
aI1
aI1
aI1
aI1
aI1
aI2
aI2
aI2
aI2
aI3
aI3
aI2
aI2
aI3
aI3
aI3
aI3
aI3
aI3
aI3
aI3
aI3
aI3
aI3
aI2
aI2
aI2
aI2
aI2
aI2
aI2
aI2
aI2
aI2
aI2
aI2
asg5
I355
sa(dp63
g25
(lp64
I0
aI0
aI0
aI0
aI0
aI0
aI0
aI0
aI0
aI0
aI0
aI0
aI1
aI1
aI1
aI1
aI1
aI1
aI1
aI1
aI1
aI1
aI1
aI0
aI0
aI1
aI1
aI0
aI0
aI0
aI0
aI3
aI3
aI3
aI3
aI3
aI3
aI3
aI3
aI3
aI3
aI3
aI3
aI3
aI3
aI3
aI3
aI3
aI3
aI3
aI3
aI3
aI3
aI3
aI2
aI2
aI2
aI2
aI2
aI2
aI2
aI2
aI2
aI3
aI3
aI3
aI3
aI3
aI3
aI2
aI2
aI2
aI3
aI2
aI3
aI2
aI3
aI2
aI3
aI2
aI3
aI2
aI2
aI3
aI3
aI0
aI0
aI0
aI0
aI0
aI0
aI1
aI1
aI1
aI0
aI0
aI0
aI0
aI0
aI1
aI1
aI1
aI1
aI1
aI1
aI1
aI1
aI0
aI0
aI0
aI0
aI0
aI0
aI0
aI0
aI0
aI1
aI1
aI1
aI1
aI1
aI1
aI1
aI1
aI1
aI0
aI0
aI1
aI0
aI0
aI0
aI0
aI0
aI0
aI0
aI0
aI1
aI1
aI1
aI1
aI1
aI1
aI1
aI1
aI0
aI0
aI0
aI0
aI0
aI0
aI0
aI0
aI0
aI0
aI0
aI0
aI0
aI0
aI0
aI0
aI0
aI0
aI0
aI0
aI0
aI0
aI0
aI0
aI0
aI0
aI0
aI0
aI0
aI0
aI0
aI0
aI0
aI0
aI0
aI0
aI0
aI0
aI3
aI3
aI3
aI3
aI3
aI3
aI3
aI3
aI3
aI3
aI2
aI2
aI2
aI2
aI2
aI2
aI2
aI2
aI2
aI2
aI2
aI2
aI2
aI2
aI2
aI2
aI2
aI2
aI2
aI2
aI2
aI2
aI2
aI2
aI2
aI2
aI2
aI2
aI2
aI2
aI2
aI2
aI2
aI2
aI2
aI2
aI2
aI2
aI2
aI2
aI2
aI2
aI2
aI2
aI2
aI3
aI3
aI0
aI0
aI0
aI0
aI0
aI0
aI0
aI0
aI0
aI0
aI0
aI0
aI0
aI0
aI0
aI0
aI0
aI0
aI0
aI0
aI0
aI0
aI0
aI0
aI0
aI0
aI0
aI0
aI0
aI0
aI0
aI0
aI0
aI0
aI0
aI0
aI0
aI0
aI0
aI0
aI0
aI0
aI0
aI0
aI0
aI3
aI3
aI3
aI2
aI2
aI2
aI2
aI2
aI2
aI3
aI3
aI3
aI3
aI2
aI2
aI2
aI2
aI1
aI1
aI1
aI0
aI1
aI1
aI2
aI2
aI2
aI2
aI2
aI2
aI3
aI3
aI3
aI3
aI3
aI2
aI2
aI1
aI2
aI1
aI1
aI0
aI1
aI2
aI1
aI0
aI2
aI2
aI2
aI2
aI3
aI3
aI3
aI3
aI3
aI2
aI2
aI2
aI2
aI2
aI2
aI2
aI2
aI2
aI2
aI2
aI2
aI2
aI2
aI3
aI3
aI0
aI3
aI2
aI2
aI2
aI3
aI3
aI0
aI0
aI3
aI2
aI2
aI3
aI3
aI3
aI3
asg27
I370
sa(dp65
g3
(lp66
I2
aI2
aI2
aI2
aI2
aI3
aI3
aI3
aI2
aI1
aI1
aI2
aI1
aI2
aI3
aI3
aI2
aI1
aI1
aI2
aI2
aI3
aI3
aI2
aI2
aI3
aI0
aI0
aI0
aI3
aI2
aI2
aI2
aI3
aI3
aI2
aI2
aI2
aI2
aI2
aI3
aI3
aI3
aI3
aI3
aI2
aI2
aI1
aI1
aI1
aI2
aI1
aI1
aI2
aI2
aI3
aI3
aI3
aI2
aI3
aI3
aI0
aI3
aI0
aI3
aI3
aI2
aI2
aI2
aI1
aI2
aI1
aI1
aI1
aI1
aI1
aI1
aI1
aI1
aI1
aI1
aI1
aI2
aI2
aI2
aI2
aI3
aI3
aI0
aI3
aI0
aI3
aI3
aI2
aI3
aI2
aI2
aI2
aI1
aI1
aI1
aI1
aI2
aI2
aI3
aI3
aI3
aI3
aI3
aI3
aI3
aI0
aI3
aI3
aI2
aI2
aI2
aI2
aI2
aI2
aI2
aI2
aI1
aI2
aI2
aI2
aI2
aI1
aI2
aI2
aI2
aI1
aI1
aI1
aI2
aI2
aI1
aI2
aI1
aI1
aI1
aI0
aI1
aI1
aI0
aI0
aI0
aI0
aI0
aI1
aI1
aI0
aI0
aI0
aI1
aI0
aI1
aI1
aI0
aI0
aI0
aI3
aI0
aI0
aI0
aI0
aI0
aI0
aI0
aI1
aI1
aI1
aI0
aI0
aI1
aI1
aI0
aI1
aI0
aI1
aI1
aI0
aI1
aI0
aI1
aI1
aI1
aI1
aI0
aI0
aI0
aI1
aI1
aI2
aI2
aI1
aI2
aI1
aI1
aI0
aI3
aI0
aI3
aI0
aI0
aI1
aI1
aI2
aI3
aI0
aI0
aI0
aI3
aI2
aI3
aI3
aI3
aI2
aI1
aI1
aI3
aI1
aI0
aI0
aI3
aI0
aI1
aI1
aI0
aI1
aI2
aI1
aI2
aI2
aI2
aI1
aI1
aI1
aI1
aI1
aI2
aI1
aI1
aI0
aI1
aI1
aI1
aI2
aI1
aI1
aI1
aI0
aI1
aI1
aI1
aI0
aI0
aI1
aI1
aI1
aI0
aI0
aI0
aI0
aI0
aI0
aI0
aI0
aI0
aI0
aI0
aI0
aI0
aI0
aI1
aI1
aI1
aI1
aI1
aI0
aI0
aI0
aI3
aI3
aI3
aI0
aI3
aI2
aI3
aI0
aI0
aI0
aI1
aI1
aI1
aI1
aI1
aI0
aI0
aI0
aI0
aI0
aI3
aI3
aI3
aI3
aI0
aI3
aI0
aI0
aI0
aI1
aI1
aI1
aI1
aI0
aI0
aI0
aI0
aI0
aI0
aI1
aI1
aI1
aI2
aI2
aI2
aI2
aI2
aI2
aI2
aI2
aI2
aI2
aI2
aI2
aI2
aI2
aI2
aI2
aI2
aI2
aI2
aI2
aI2
aI2
aI2
aI2
aI2
aI2
aI2
aI2
aI2
aI2
aI2
aI2
aI2
aI2
aI2
aI2
aI2
aI2
aI2
aI2
aI2
aI2
aI2
aI2
aI2
aI1
aI1
aI0
aI0
aI0
aI0
aI0
aI0
aI0
aI0
aI0
aI0
aI0
aI0
aI0
aI0
aI0
aI0
aI0
aI0
aI0
aI0
aI0
aI0
aI0
aI0
aI0
aI0
aI0
aI0
aI0
aI0
aI0
aI0
aI0
aI0
aI0
aI0
aI0
aI0
aI0
aI0
aI0
aI0
aI0
aI0
aI0
aI1
aI1
aI1
aI1
aI1
aI1
aI1
aI1
aI1
aI1
aI2
aI2
aI2
aI2
aI2
aI2
aI2
aI2
aI2
aI2
aI2
aI2
aI2
aI2
aI2
aI2
aI2
aI2
aI2
aI2
aI2
aI2
aI2
aI2
aI2
aI2
aI2
aI2
aI2
aI2
aI2
aI2
aI2
aI2
aI2
aI2
aI2
aI2
aI3
aI3
aI0
aI0
aI3
aI3
aI3
aI3
aI3
aI3
aI2
aI2
aI1
aI1
aI1
aI1
aI1
aI3
aI3
aI1
aI1
aI1
aI1
aI3
aI1
aI3
aI0
aI0
aI0
aI0
aI3
aI3
aI3
aI3
aI3
aI3
aI0
aI0
aI1
aI1
aI1
aI1
aI1
aI1
aI0
aI0
aI0
aI0
aI3
aI3
aI3
aI3
aI3
aI3
aI2
aI2
aI2
aI2
aI2
aI2
aI2
aI2
aI2
aI2
aI2
aI2
aI2
aI2
aI2
aI2
aI2
aI2
aI3
aI2
aI2
aI3
aI3
aI3
aI3
aI3
aI3
aI3
aI3
aI3
aI2
aI2
aI2
aI2
aI2
aI2
aI2
aI2
aI2
aI3
aI3
aI3
aI3
aI3
aI3
aI3
aI3
aI2
aI2
aI2
aI2
aI2
aI3
aI3
aI3
aI2
aI2
aI2
aI2
aI2
aI2
aI2
aI1
aI0
aI1
aI0
aI0
aI1
aI0
aI1
aI0
aI1
aI0
aI1
aI0
aI1
aI0
aI0
aI0
aI1
aI1
aI1
aI1
aI1
aI1
aI0
aI0
aI0
aI0
aI0
aI0
aI0
aI0
aI0
aI1
aI1
aI2
aI2
aI2
aI1
aI2
aI1
aI1
aI0
aI0
aI1
aI0
aI0
aI3
aI3
aI3
aI1
aI1
aI1
aI1
aI1
aI1
aI1
aI1
aI1
aI1
aI1
aI1
aI1
aI1
aI1
aI1
aI1
aI1
aI1
aI1
aI2
aI2
aI2
aI2
aI3
aI3
aI2
aI2
aI3
aI3
aI3
aI3
aI3
aI3
aI3
aI3
aI3
aI3
aI3
aI2
aI2
aI2
aI2
aI1
aI1
aI1
aI1
aI1
aI2
aI1
aI0
aI3
aI2
aI2
aI3
aI2
aI2
aI1
aI2
aI2
aI3
aI3
aI3
aI3
aI3
aI2
aI2
asg5
I696
sa(dp67
g25
(lp68
I0
aI0
aI0
aI0
aI0
aI0
aI0
aI0
aI0
aI0
aI0
aI0
aI1
aI1
aI1
aI1
aI1
aI1
aI1
aI1
aI1
aI1
aI1
aI0
aI0
aI1
aI1
aI0
aI0
aI0
aI0
aI3
aI3
aI3
aI3
aI3
aI3
aI3
aI3
aI3
aI3
aI3
aI3
aI3
aI3
aI3
aI3
aI3
aI3
aI3
aI3
aI3
aI3
aI3
aI2
aI2
aI2
aI2
aI2
aI2
aI2
aI2
aI2
aI3
aI3
aI3
aI3
aI3
aI3
aI2
aI2
aI2
aI3
aI2
aI3
aI2
aI3
aI2
aI3
aI2
aI3
aI2
aI2
aI3
aI3
aI0
aI0
aI0
aI0
aI0
aI0
aI1
aI1
aI1
aI0
aI0
aI0
aI0
aI0
aI1
aI1
aI1
aI1
aI1
aI1
aI1
aI1
aI0
aI0
aI0
aI0
aI0
aI0
aI0
aI0
aI0
aI1
aI1
aI1
aI1
aI1
aI1
aI1
aI1
aI1
aI0
aI0
aI1
aI0
aI0
aI0
aI0
aI0
aI0
aI0
aI0
aI1
aI1
aI1
aI1
aI1
aI1
aI1
aI1
aI0
aI0
aI0
aI0
aI0
aI0
aI0
aI0
aI0
aI0
aI0
aI0
aI0
aI0
aI0
aI0
aI0
aI0
aI0
aI0
aI0
aI0
aI0
aI0
aI0
aI0
aI0
aI0
aI0
aI0
aI0
aI0
aI0
aI0
aI0
aI0
aI0
aI0
aI3
aI3
aI3
aI3
aI3
aI3
aI3
aI3
aI3
aI3
aI2
aI2
aI2
aI2
aI2
aI2
aI2
aI2
aI2
aI2
aI2
aI2
aI2
aI2
aI2
aI2
aI2
aI2
aI2
aI2
aI2
aI2
aI2
aI2
aI2
aI2
aI2
aI2
aI2
aI2
aI2
aI2
aI2
aI2
aI2
aI2
aI2
aI2
aI2
aI2
aI2
aI2
aI2
aI2
aI2
aI3
aI3
aI0
aI0
aI0
aI0
aI0
aI0
aI0
aI0
aI0
aI0
aI0
aI0
aI0
aI0
aI0
aI0
aI0
aI0
aI0
aI0
aI0
aI0
aI0
aI0
aI0
aI0
aI0
aI0
aI0
aI0
aI0
aI0
aI0
aI0
aI0
aI0
aI0
aI0
aI0
aI0
aI0
aI0
aI0
aI0
aI0
aI3
aI3
aI3
aI2
aI2
aI2
aI2
aI2
aI2
aI3
aI3
aI3
aI3
aI2
aI2
aI2
aI2
aI1
aI1
aI1
aI0
aI1
aI1
aI2
aI2
aI2
aI2
aI2
aI2
aI3
aI3
aI3
aI3
aI3
aI2
aI2
aI1
aI2
aI3
aI1
aI1
aI1
aI0
aI1
aI2
aI1
aI2
aI2
aI2
aI3
aI3
aI3
aI3
aI3
aI2
aI2
aI2
aI2
aI2
aI2
aI2
aI2
aI2
aI2
aI2
aI2
aI2
aI2
aI3
aI3
aI0
aI3
aI2
aI2
aI2
aI3
aI3
aI0
aI0
aI0
aI3
aI2
aI2
aI3
aI0
aI0
aI0
aI3
aI3
aI2
aI2
aI3
aI3
aI2
aI1
aI1
aI2
aI3
aI2
aI2
aI3
aI0
aI0
aI3
aI0
aI3
aI2
aI3
aI0
aI3
aI2
aI3
aI3
aI3
aI3
aI2
aI2
aI3
aI0
aI3
aI3
aI2
aI3
aI3
aI3
aI3
aI2
aI3
aI2
aI3
aI3
aI2
aI3
aI2
aI2
aI1
aI1
aI1
aI1
aI1
aI1
aI0
aI0
asg27
I427
sa(dp69
g25
(lp70
I0
aI0
aI0
aI0
aI0
aI0
aI0
aI0
aI0
aI0
aI0
aI0
aI1
aI1
aI1
aI1
aI1
aI1
aI1
aI1
aI1
aI1
aI1
aI0
aI0
aI1
aI1
aI0
aI0
aI0
aI0
aI3
aI3
aI3
aI3
aI3
aI3
aI3
aI3
aI3
aI3
aI3
aI3
aI3
aI3
aI3
aI3
aI3
aI3
aI3
aI3
aI3
aI3
aI3
aI2
aI2
aI2
aI2
aI2
aI2
aI2
aI2
aI2
aI3
aI3
aI3
aI3
aI3
aI3
aI2
aI2
aI2
aI3
aI2
aI3
aI2
aI3
aI2
aI3
aI2
aI3
aI2
aI2
aI3
aI3
aI0
aI0
aI0
aI0
aI0
aI0
aI1
aI1
aI1
aI0
aI0
aI0
aI0
aI0
aI1
aI1
aI1
aI1
aI1
aI1
aI1
aI1
aI0
aI0
aI0
aI0
aI0
aI0
aI0
aI0
aI0
aI1
aI1
aI1
aI1
aI1
aI1
aI1
aI1
aI1
aI0
aI0
aI1
aI0
aI0
aI0
aI0
aI0
aI0
aI0
aI0
aI1
aI1
aI1
aI1
aI1
aI1
aI1
aI1
aI0
aI0
aI0
aI0
aI0
aI0
aI0
aI0
aI0
aI0
aI0
aI0
aI0
aI0
aI0
aI0
aI0
aI0
aI0
aI0
aI0
aI0
aI0
aI0
aI0
aI0
aI0
aI0
aI0
aI0
aI0
aI0
aI0
aI0
aI0
aI0
aI0
aI0
aI3
aI3
aI3
aI3
aI3
aI3
aI3
aI3
aI3
aI3
aI2
aI2
aI2
aI2
aI2
aI2
aI2
aI2
aI2
aI2
aI2
aI2
aI2
aI2
aI2
aI2
aI2
aI2
aI2
aI2
aI2
aI2
aI2
aI2
aI2
aI2
aI2
aI2
aI2
aI2
aI2
aI2
aI2
aI2
aI2
aI2
aI2
aI2
aI2
aI2
aI2
aI2
aI2
aI2
aI2
aI3
aI3
aI0
aI0
aI0
aI0
aI0
aI0
aI0
aI0
aI0
aI0
aI0
aI0
aI0
aI0
aI0
aI0
aI0
aI0
aI0
aI0
aI0
aI0
aI0
aI0
aI0
aI0
aI0
aI0
aI0
aI0
aI0
aI0
aI0
aI0
aI0
aI0
aI0
aI0
aI0
aI0
aI0
aI0
aI0
aI0
aI0
aI3
aI3
aI3
aI2
aI2
aI2
aI2
aI2
aI2
aI3
aI3
aI3
aI3
aI2
aI2
aI2
aI2
aI1
aI1
aI1
aI0
aI1
aI1
aI2
aI2
aI2
aI2
aI2
aI2
aI3
aI3
aI3
aI3
aI3
aI2
aI2
aI2
aI1
aI0
aI1
aI2
aI1
aI1
aI0
aI1
aI2
aI2
aI2
aI2
aI3
aI3
aI3
aI3
aI3
aI2
aI2
aI2
aI2
aI2
aI2
aI2
aI2
aI2
aI2
aI2
aI2
aI2
aI2
aI3
aI3
aI0
aI3
aI2
aI2
aI2
aI3
aI3
aI2
aI3
aI3
aI3
aI0
aI1
aI0
aI1
aI1
aI0
aI0
aI3
aI3
aI2
aI1
aI1
aI0
aI0
aI3
aI3
aI3
aI3
aI3
aI3
aI3
aI2
aI1
aI2
aI1
aI1
aI2
aI2
aI2
aI3
aI0
aI3
aI2
aI2
aI1
aI2
aI2
aI3
aI0
aI3
aI0
aI0
aI0
aI3
aI3
aI0
aI3
aI2
aI3
aI3
aI3
aI3
aI0
aI0
aI0
aI3
aI2
aI3
aI2
aI1
aI2
aI2
aI2
aI2
aI3
aI0
aI3
aI3
aI2
aI2
aI2
aI3
aI2
aI2
aI3
aI3
aI3
aI3
aI3
aI3
aI0
aI0
aI1
aI0
aI1
aI2
aI2
aI3
aI3
aI3
aI2
aI3
aI2
aI3
aI3
aI2
aI2
aI3
aI3
aI3
aI2
aI2
aI2
aI2
aI2
aI2
aI2
aI1
aI2
aI2
aI2
aI3
aI3
aI2
aI3
aI2
aI2
aI2
aI3
aI3
aI2
aI2
aI2
aI2
aI2
aI3
aI2
aI1
aI2
aI1
aI2
aI1
aI2
aI3
aI2
aI2
aI1
aI2
aI2
aI1
aI2
aI3
aI3
asg27
I508
sa(dp71
g25
(lp72
I0
aI0
aI0
aI0
aI0
aI0
aI0
aI0
aI0
aI0
aI0
aI0
aI1
aI1
aI1
aI1
aI1
aI1
aI1
aI1
aI1
aI1
aI1
aI0
aI0
aI1
aI1
aI0
aI0
aI0
aI0
aI3
aI3
aI3
aI3
aI3
aI3
aI3
aI3
aI3
aI3
aI3
aI3
aI3
aI3
aI3
aI3
aI3
aI3
aI3
aI3
aI3
aI3
aI3
aI2
aI2
aI2
aI2
aI2
aI2
aI2
aI2
aI2
aI3
aI3
aI3
aI3
aI3
aI3
aI2
aI2
aI2
aI3
aI2
aI3
aI2
aI3
aI2
aI3
aI2
aI3
aI2
aI2
aI3
aI3
aI0
aI0
aI0
aI0
aI0
aI0
aI1
aI1
aI1
aI0
aI0
aI0
aI0
aI0
aI1
aI1
aI1
aI1
aI1
aI1
aI1
aI1
aI0
aI0
aI0
aI0
aI0
aI0
aI0
aI0
aI0
asg27
I116
sa(dp73
g25
(lp74
I0
aI0
aI0
aI0
aI0
aI0
aI0
aI0
aI0
aI0
aI0
aI0
aI1
aI1
aI1
aI1
aI1
aI1
aI1
aI1
aI1
aI1
aI1
aI0
aI0
aI1
aI1
aI0
aI0
aI0
aI0
aI3
aI3
aI3
aI3
aI3
aI3
aI3
aI3
aI3
aI3
aI3
aI3
aI3
aI3
aI3
aI3
aI3
aI3
aI3
aI3
aI3
aI3
aI3
aI2
aI2
aI2
aI2
aI2
aI2
aI2
aI2
aI2
aI3
aI3
aI3
aI3
aI3
aI3
aI2
aI2
aI2
aI3
aI2
aI3
aI2
aI3
aI2
aI3
aI2
aI3
aI2
aI2
aI3
aI3
aI0
aI0
aI0
aI0
aI0
aI0
aI1
aI1
aI1
aI0
aI0
aI0
aI0
aI0
aI1
aI1
aI1
aI1
aI1
aI1
aI1
aI1
aI0
aI0
aI0
aI0
aI0
aI0
aI0
aI0
aI0
aI1
aI1
aI1
aI1
aI1
aI1
aI1
aI1
aI1
aI0
aI0
aI1
aI0
aI0
aI0
aI0
aI0
aI0
aI0
aI0
aI1
aI1
aI1
aI1
aI1
aI1
aI1
aI1
aI0
aI0
aI0
aI0
aI0
aI0
aI0
aI0
aI0
aI0
aI0
aI0
aI0
aI0
aI0
aI0
aI0
aI0
aI0
aI0
aI0
aI0
aI0
aI0
aI0
aI0
aI0
aI0
aI0
aI0
aI0
aI0
aI0
aI0
aI0
aI0
aI0
aI0
aI3
aI3
aI3
aI3
aI3
aI3
aI3
aI3
aI3
aI3
aI2
aI2
aI2
aI2
aI2
aI2
aI2
aI2
aI2
aI2
aI2
aI2
aI2
aI2
aI2
aI2
aI2
aI2
aI2
aI2
aI2
aI2
aI2
aI2
aI2
aI2
aI2
aI2
aI2
aI2
aI2
aI2
aI2
aI2
aI2
aI2
aI2
aI2
aI2
aI2
aI2
aI2
aI2
aI2
aI2
aI3
aI3
aI0
aI0
aI0
aI0
aI0
aI0
aI0
aI0
aI0
aI0
aI0
aI0
aI0
aI0
aI0
aI0
aI0
aI0
aI0
aI0
aI0
aI0
aI0
aI0
aI0
aI0
aI0
aI0
aI0
aI0
aI0
aI0
aI0
aI0
aI0
aI0
aI0
aI0
aI0
aI0
aI0
aI0
aI0
aI0
aI0
aI3
aI3
aI3
aI2
aI2
aI2
aI2
aI2
aI2
aI3
aI3
aI3
aI3
aI2
aI2
aI2
aI2
aI1
aI1
aI1
aI0
aI1
aI1
aI2
aI2
aI2
aI2
aI2
aI2
aI3
aI3
aI3
aI3
aI3
aI2
aI2
aI2
aI1
aI1
aI1
aI1
aI0
aI1
aI2
aI2
aI2
aI2
aI3
aI3
aI3
aI3
aI3
aI2
aI2
aI2
aI2
aI2
aI2
aI2
aI2
aI2
aI2
aI2
aI2
aI2
aI2
aI3
aI3
aI0
aI3
aI2
aI2
aI2
aI3
aI3
aI0
aI0
aI3
aI2
aI3
aI2
aI3
aI3
aI0
aI1
aI0
aI1
aI0
aI0
aI1
aI2
aI1
aI0
aI3
aI3
aI3
aI3
aI3
aI3
aI2
aI2
aI1
aI2
aI2
aI3
aI2
aI3
aI0
aI3
aI3
aI0
aI3
aI2
aI3
aI3
aI3
aI3
aI0
aI0
aI0
aI3
aI0
aI3
aI0
asg27
I408
sa(dp75
g3
(lp76
I0
aI0
aI3
aI2
aI2
aI2
aI2
aI2
aI2
aI1
aI2
aI3
aI2
aI2
aI2
aI2
aI1
aI2
aI2
aI2
aI2
aI2
aI2
aI2
aI2
aI2
aI3
aI2
aI3
aI3
aI3
aI3
aI3
aI3
aI3
aI3
aI3
aI3
aI3
aI3
aI3
aI3
aI2
aI2
aI2
aI2
aI2
aI2
aI2
aI2
aI3
aI2
aI2
aI3
aI3
aI3
aI3
aI3
aI3
aI3
aI3
aI3
aI2
aI2
aI2
aI2
aI2
aI2
aI2
aI2
aI2
aI3
aI3
aI3
aI3
aI3
aI3
aI3
aI3
aI2
aI2
aI2
aI2
aI2
aI3
aI3
aI3
aI2
aI2
aI2
aI2
aI2
aI2
aI1
aI1
aI0
aI0
aI1
aI0
aI1
aI0
aI1
aI0
aI1
aI0
aI1
aI0
aI0
aI0
aI1
aI1
aI1
aI1
aI1
aI1
aI0
aI0
aI0
aI0
aI0
aI0
aI0
aI0
aI0
aI1
aI1
aI1
aI1
aI1
aI1
aI1
aI1
aI1
aI1
aI1
aI1
aI1
aI1
aI1
aI1
aI1
aI1
aI1
aI1
aI1
aI1
aI1
aI2
aI2
aI2
aI2
aI3
aI3
aI2
aI2
aI3
aI3
aI3
aI3
aI3
aI3
aI3
aI3
aI3
aI3
aI3
aI2
aI2
aI2
aI2
aI2
aI2
aI2
aI2
aI2
aI2
aI2
aI2
asg5
I178
sa(dp77
g3
(lp78
I1
aI1
aI1
aI1
aI1
aI1
aI1
aI1
aI1
aI1
aI1
aI1
aI2
aI2
aI2
aI2
aI2
aI2
aI2
aI2
aI2
aI2
aI2
aI2
aI2
aI2
aI2
aI2
aI2
aI2
aI2
aI2
aI2
aI2
aI2
aI2
aI2
aI2
aI2
aI3
aI3
aI3
aI3
aI3
aI3
aI3
aI3
aI3
aI3
aI3
aI3
aI3
aI2
aI2
aI2
aI3
aI3
aI0
aI0
aI0
aI0
aI0
aI0
aI0
aI0
aI0
aI0
aI0
aI0
aI0
aI0
aI0
aI0
aI0
aI0
aI0
aI0
aI3
aI3
aI3
aI3
aI3
aI3
aI3
aI3
aI3
aI2
aI2
aI1
aI1
aI1
aI1
aI2
aI2
aI2
aI3
aI2
aI2
aI1
aI2
aI3
aI2
aI2
aI1
aI1
aI1
aI1
aI2
aI2
aI3
aI3
aI2
aI1
aI2
aI3
aI3
aI0
aI3
aI3
aI2
aI1
aI2
aI3
aI2
aI3
aI2
aI2
aI2
aI2
aI2
aI2
aI2
aI3
aI3
aI3
aI3
aI3
aI2
aI2
aI1
aI1
aI1
aI2
aI1
aI1
aI2
aI2
aI3
aI3
aI3
aI2
aI3
aI3
aI0
aI3
aI0
aI3
aI3
aI2
aI2
aI2
aI1
aI2
aI1
aI1
aI1
aI1
aI1
aI1
aI1
aI1
aI1
aI1
aI1
aI2
aI2
aI2
aI2
aI3
aI3
aI0
aI3
aI0
aI3
aI3
aI2
aI3
aI2
aI2
aI2
aI1
aI1
aI1
aI1
aI2
aI2
aI3
aI3
aI3
aI3
aI3
aI3
aI3
aI0
aI3
aI3
aI2
aI2
aI2
aI2
aI2
aI2
aI2
aI2
aI1
aI2
aI2
aI2
aI2
aI1
aI2
aI2
aI2
aI1
aI1
aI1
aI2
aI2
aI1
aI2
aI1
aI1
aI1
aI0
aI1
aI1
aI0
aI0
aI0
aI0
aI0
aI1
aI1
aI0
aI0
aI0
aI1
aI0
aI1
aI1
aI0
aI0
aI0
aI3
aI0
aI0
aI0
aI0
aI0
aI0
aI0
aI1
aI1
aI1
aI0
aI0
aI1
aI1
aI0
aI1
aI0
aI1
aI2
aI1
aI1
aI1
aI1
aI1
aI1
aI1
aI1
aI1
aI0
aI0
aI0
aI0
aI0
aI0
aI3
aI0
aI1
aI0
aI1
aI2
aI2
aI2
aI1
aI2
aI3
aI2
aI1
aI2
aI2
aI3
aI2
aI1
aI0
aI3
aI0
aI0
aI0
aI0
aI1
aI0
aI0
aI1
aI1
aI1
aI1
aI0
aI1
aI0
aI1
aI2
aI1
aI0
aI1
aI2
aI1
aI2
aI1
aI1
aI0
aI3
aI0
aI1
aI1
aI1
aI2
aI1
aI2
aI1
aI1
aI0
aI0
aI1
aI1
aI1
aI0
aI0
aI0
aI0
aI0
aI0
aI0
aI0
aI0
aI0
aI0
aI0
aI0
aI0
aI1
aI1
aI1
aI1
aI1
aI0
aI0
aI0
aI3
aI3
aI0
aI1
aI1
aI2
aI3
aI1
aI0
aI3
aI2
aI1
aI0
aI2
aI0
aI3
aI3
aI3
aI2
aI3
aI0
aI3
aI0
aI0
aI1
aI1
aI1
aI1
aI1
aI0
aI0
aI0
aI3
aI2
aI3
aI0
aI3
aI2
aI3
aI3
aI0
aI1
aI3
aI2
aI1
aI1
aI1
aI1
aI1
aI2
aI2
aI0
aI2
aI3
aI1
aI0
aI0
aI0
aI0
aI0
aI3
aI3
aI0
aI3
aI3
aI3
aI0
aI0
aI0
aI1
aI1
aI1
aI1
aI0
aI0
aI0
aI0
aI0
aI0
aI1
aI1
aI1
aI2
aI2
aI2
aI2
aI2
aI2
aI2
aI2
aI2
aI2
aI2
aI2
aI2
aI2
aI2
aI2
aI2
aI2
aI2
aI2
aI2
aI2
aI2
aI2
aI2
aI2
aI2
aI2
aI2
aI2
aI2
aI2
aI2
aI2
aI2
aI2
aI2
aI2
aI2
aI2
aI2
aI2
aI2
aI2
aI2
aI1
aI1
aI0
aI0
aI0
aI0
aI0
aI0
aI0
aI0
aI0
aI0
aI0
aI0
aI0
aI0
aI0
aI0
aI0
aI0
aI0
aI0
aI0
aI0
aI0
aI0
aI0
aI0
aI0
aI0
aI0
aI0
aI0
aI0
aI0
aI0
aI0
aI0
aI0
aI0
aI0
aI0
aI0
aI0
aI0
aI0
aI0
aI1
aI1
aI1
aI1
aI1
aI1
aI1
aI1
aI1
aI1
aI2
aI2
aI2
aI2
aI2
aI2
aI2
aI2
aI2
aI2
aI2
aI2
aI2
aI2
aI2
aI2
aI2
aI2
aI2
aI2
aI2
aI2
aI2
aI2
aI2
aI2
aI2
aI2
aI2
aI2
aI2
aI2
aI2
aI2
aI2
aI2
aI2
aI2
aI3
aI3
aI3
aI3
aI3
aI3
aI3
aI3
aI2
aI2
aI2
aI2
aI2
aI2
aI2
aI2
aI3
aI2
aI2
aI3
aI3
aI3
aI3
aI3
aI3
aI3
aI3
aI3
aI2
aI2
aI2
aI2
aI2
aI2
aI2
aI2
aI2
aI3
aI3
aI3
aI3
aI3
aI3
aI3
aI3
aI2
aI2
aI2
aI2
aI2
aI3
aI3
aI3
aI2
aI2
aI2
aI2
aI2
aI2
aI1
aI1
aI2
aI1
aI1
aI0
aI3
aI2
aI0
aI3
aI0
aI0
aI1
aI0
aI1
aI0
aI1
aI0
aI1
aI0
aI1
aI0
aI0
aI0
aI1
aI1
aI1
aI1
aI1
aI1
aI0
aI0
aI0
aI0
aI0
aI0
aI0
aI0
aI0
aI1
aI1
aI1
aI1
aI1
aI1
aI1
aI1
aI1
aI1
aI1
aI1
aI1
aI1
aI1
aI1
aI1
aI1
aI1
aI1
aI1
aI1
aI1
aI2
aI2
aI2
aI2
aI3
aI3
aI2
aI2
aI1
aI1
aI2
aI2
aI3
aI3
aI3
aI3
aI3
aI3
aI3
aI3
aI3
aI3
aI3
aI3
aI3
aI2
aI2
aI2
aI2
aI2
aI2
aI2
aI2
aI2
aI2
asg5
I748
sa(dp79
g3
(lp80
I1
aI1
aI1
aI1
aI1
aI1
aI1
aI1
aI1
aI1
aI1
aI1
aI1
aI0
aI0
aI0
aI0
aI0
aI0
aI0
aI0
aI0
aI0
aI0
aI0
aI3
aI3
aI0
aI0
aI1
aI1
aI0
aI0
aI0
aI0
aI3
aI3
aI3
aI3
aI3
aI3
aI3
aI3
aI3
aI3
aI3
aI3
aI3
aI3
aI2
aI2
aI2
aI2
aI3
aI3
aI0
aI0
aI3
aI3
aI2
aI2
aI3
aI3
aI3
aI2
aI2
aI2
aI2
aI2
aI2
aI2
aI2
aI2
aI2
aI2
aI2
aI2
aI2
aI3
aI2
aI1
aI2
aI2
aI2
aI2
aI2
aI2
aI2
aI2
aI2
aI3
aI3
aI3
aI3
aI3
aI3
aI3
aI3
aI0
aI0
aI0
aI3
aI0
aI3
aI0
aI3
aI0
aI3
aI0
aI3
aI0
aI0
aI0
aI3
aI2
aI3
aI3
aI3
aI3
aI0
aI0
aI0
aI0
aI0
aI0
aI0
aI1
aI1
aI1
aI1
aI1
aI1
aI0
aI0
aI0
aI0
aI0
aI1
aI1
aI1
aI1
aI1
aI1
aI1
aI1
aI0
aI0
aI0
aI0
aI0
aI0
aI0
aI0
aI0
aI1
aI1
aI1
aI1
aI1
aI1
aI1
aI1
aI1
aI0
aI0
aI1
aI0
aI0
aI0
aI0
aI0
aI0
aI0
aI0
aI1
aI1
aI1
aI1
aI1
aI1
aI1
aI1
aI1
aI1
aI0
aI0
aI0
aI0
aI0
aI0
aI0
aI0
aI0
aI0
aI0
aI0
aI0
aI0
aI0
aI0
aI0
aI0
aI0
aI0
aI0
aI0
aI0
aI0
aI0
aI0
aI0
aI0
aI0
aI0
aI0
aI0
aI0
aI0
aI0
aI0
aI0
aI0
aI3
aI3
aI3
aI3
aI2
aI2
aI2
aI2
aI2
aI2
aI2
aI2
aI2
aI2
aI2
aI2
aI2
aI2
aI2
aI2
aI2
aI2
aI3
aI3
aI3
aI3
aI3
aI3
aI0
aI0
aI0
aI0
aI0
aI0
aI0
aI0
aI0
aI0
aI0
aI0
aI0
aI0
aI0
aI0
aI0
aI0
aI3
aI3
aI2
aI2
aI2
aI2
aI2
aI2
aI2
aI2
aI2
aI2
aI2
aI2
aI2
aI2
aI2
aI2
aI2
aI2
aI2
aI2
aI2
aI2
aI2
aI2
aI2
aI2
aI2
aI2
aI2
aI2
aI2
aI2
aI2
aI2
aI2
aI2
aI2
aI2
aI2
aI2
aI2
aI2
aI2
aI2
aI2
aI3
aI3
aI0
aI0
aI0
aI0
aI0
aI0
aI0
aI0
aI0
aI0
aI0
aI0
aI0
aI0
aI0
aI0
aI0
aI0
aI0
aI0
aI0
aI0
aI0
aI0
aI0
aI0
aI0
aI0
aI0
aI0
aI0
aI0
aI0
aI0
aI0
aI0
aI0
aI0
aI0
aI0
aI0
aI0
aI0
aI0
aI0
aI3
aI3
aI3
aI2
aI2
aI2
aI2
aI2
aI2
aI3
aI3
aI3
aI3
aI2
aI2
aI2
aI1
aI2
aI1
aI1
aI1
aI1
aI2
aI2
aI2
aI2
aI2
aI3
aI3
aI3
aI3
aI3
aI2
aI2
aI1
aI2
aI3
aI0
aI0
aI0
aI2
aI2
aI1
aI1
aI1
aI1
aI2
aI1
aI2
aI2
aI2
aI3
aI3
aI3
aI3
aI3
aI2
aI2
aI2
aI2
aI2
aI2
aI2
aI2
aI2
aI2
aI2
aI2
aI2
aI2
aI3
aI3
aI3
aI2
aI2
aI2
aI2
aI2
aI2
aI2
aI3
aI2
aI2
aI2
aI2
aI3
aI2
aI2
aI2
aI2
aI2
aI2
aI2
aI2
aI3
aI3
aI0
aI0
aI0
aI0
aI1
aI0
aI3
aI0
aI0
aI3
aI3
aI0
aI0
aI1
aI1
aI2
aI3
aI1
aI3
aI1
aI2
aI2
aI2
aI0
aI2
aI0
aI2
aI2
aI0
aI0
aI2
aI1
aI1
aI2
aI0
aI0
aI0
aI0
aI1
aI3
aI2
aI2
aI2
aI2
aI2
aI0
aI3
aI3
aI1
aI0
aI3
aI2
aI1
aI0
aI3
aI2
aI1
aI3
aI2
aI0
aI0
aI2
aI0
aI2
aI0
aI2
aI2
aI2
aI2
aI0
aI0
aI2
aI2
aI0
aI0
aI0
aI2
aI0
aI1
aI1
aI3
aI3
aI2
aI2
aI2
aI2
aI3
aI3
aI3
aI3
aI3
aI3
aI3
aI3
aI3
aI3
aI0
aI3
aI2
aI3
aI3
aI3
aI3
aI3
aI3
aI2
aI2
aI2
aI2
aI2
aI2
aI2
aI2
aI2
aI2
aI2
aI3
aI3
aI3
aI0
aI3
aI3
aI3
aI2
aI3
aI3
aI0
aI3
aI2
aI0
aI1
aI0
aI0
aI1
aI1
aI1
aI0
aI1
aI0
aI1
aI1
aI1
aI1
aI2
aI0
aI0
aI2
aI0
aI2
aI2
aI2
aI2
aI2
aI0
aI2
aI0
aI2
aI2
aI2
aI2
aI2
aI2
aI2
aI2
aI2
aI2
aI2
aI2
aI2
aI2
aI2
aI2
asg5
I630
saa(lp81
g6
ag12
ag49
a(dp82
g3
(lp83
sg5
I0
sa(dp84
g3
(lp85
I3
aI3
aI3
aI2
aI2
aI1
aI1
aI1
aI1
aI1
aI0
aI1
aI1
aI1
aI0
aI0
aI3
aI0
aI3
aI3
aI3
aI3
aI3
aI3
aI3
aI3
aI2
aI3
aI2
aI2
aI2
aI2
aI2
aI2
aI1
aI2
aI1
aI1
aI0
aI1
aI0
aI1
aI1
aI1
aI1
aI2
aI1
aI1
aI1
aI1
aI1
aI0
aI0
aI0
aI0
aI0
aI0
aI0
aI0
aI0
aI3
aI3
aI3
aI3
aI3
aI3
aI3
aI3
aI3
aI3
aI3
aI3
aI3
aI3
aI3
aI2
aI2
aI2
aI2
aI2
aI2
aI2
aI2
aI2
aI2
aI2
aI2
aI2
aI2
aI2
aI1
aI1
aI1
aI1
aI1
aI2
aI2
aI3
aI3
aI3
aI3
aI3
aI2
aI2
aI1
aI1
aI1
aI1
aI1
aI2
aI2
aI3
aI3
aI3
aI3
aI3
aI2
aI2
aI1
aI1
aI1
aI1
aI1
aI2
aI2
aI3
aI3
aI3
aI3
aI3
aI2
aI2
aI1
aI1
aI1
aI1
aI1
aI2
aI2
aI3
aI3
aI3
aI3
aI3
aI2
aI2
aI2
aI1
aI1
aI1
aI1
aI1
aI2
aI2
aI3
aI3
aI2
aI2
aI1
aI1
aI1
aI2
aI1
aI1
aI2
aI2
aI3
aI3
aI3
aI2
aI3
aI3
aI0
aI3
aI0
aI3
aI3
aI2
aI2
aI2
aI1
aI2
aI1
aI1
aI1
aI1
aI1
aI1
aI1
aI1
aI1
aI1
aI1
aI2
aI2
aI2
aI2
aI3
aI3
aI0
aI3
aI0
aI3
aI3
aI2
aI3
aI2
aI2
aI2
aI1
aI1
aI1
aI1
aI2
aI2
aI3
aI3
aI3
aI3
aI3
aI3
aI3
aI0
aI3
aI3
aI2
aI2
aI2
aI2
aI2
aI2
aI2
aI2
aI1
aI2
aI2
aI2
aI2
aI1
aI2
aI2
aI2
aI1
aI1
aI1
aI2
aI2
aI1
aI2
aI1
aI1
aI1
aI1
aI1
aI0
aI0
aI0
aI0
aI0
aI0
aI1
aI1
aI0
aI0
aI0
aI1
aI0
aI1
aI1
aI0
aI0
aI0
aI3
aI0
aI0
aI0
aI0
aI0
aI0
aI0
aI1
aI1
aI1
aI0
aI0
aI1
aI1
aI0
aI1
aI0
aI0
aI1
aI1
aI0
aI3
aI0
aI1
aI1
aI1
aI0
aI1
aI2
aI2
aI2
aI3
aI3
aI2
aI1
aI2
aI3
aI3
aI3
aI0
aI1
aI1
aI1
aI1
aI2
aI1
aI0
aI0
aI0
aI1
aI0
aI1
aI1
aI0
aI3
aI0
aI1
aI1
aI1
aI0
aI3
aI0
aI1
aI1
aI2
aI1
aI1
aI1
aI1
aI2
aI2
aI2
aI2
aI1
aI1
aI0
aI3
aI0
aI0
aI0
aI1
aI2
aI2
aI1
aI2
aI2
aI1
aI1
aI1
aI1
aI1
aI2
aI2
aI2
aI2
aI3
aI3
aI2
aI2
aI1
aI1
aI2
aI2
aI2
aI2
aI2
aI2
aI2
aI1
aI1
aI0
aI0
aI0
aI0
aI3
aI0
aI1
aI0
aI0
aI0
aI1
aI0
aI0
aI0
aI0
aI1
aI0
aI0
aI0
aI0
aI0
aI0
aI0
aI1
aI1
aI1
aI0
aI0
aI0
aI0
aI0
aI0
aI0
aI0
aI0
aI0
aI0
aI0
aI0
aI0
aI1
aI1
aI1
aI1
aI1
aI0
aI0
aI0
aI3
aI0
aI3
aI3
aI2
aI3
aI0
aI3
aI0
aI0
aI1
aI1
aI1
aI1
aI1
aI0
aI0
aI0
aI0
aI0
aI3
aI3
aI3
aI3
aI0
aI3
aI0
aI0
aI0
aI1
aI1
aI1
aI1
aI0
aI0
aI0
aI0
aI0
aI0
aI1
aI1
aI1
aI2
aI2
aI2
aI2
aI2
aI2
aI2
aI2
aI2
aI2
aI2
aI2
aI2
aI2
aI2
aI2
aI2
aI2
aI2
aI2
aI2
aI2
aI2
aI2
aI2
aI2
aI2
aI2
aI2
aI2
aI2
aI2
aI2
aI2
aI2
aI2
aI2
aI2
aI2
aI2
aI2
aI2
aI2
aI2
aI2
aI1
aI1
aI0
aI0
aI0
aI0
aI0
aI0
aI0
aI0
aI0
aI0
aI0
aI0
aI0
aI0
aI0
aI0
aI0
aI0
aI0
aI0
aI0
aI0
aI0
aI0
aI0
aI0
aI0
aI0
aI0
aI0
aI0
aI0
aI0
aI0
aI0
aI0
aI0
aI0
aI0
aI0
aI0
aI0
aI0
aI0
aI0
aI1
aI1
aI2
aI2
aI2
aI2
aI2
aI2
aI2
aI2
aI2
aI2
aI2
aI2
aI2
aI2
aI2
aI2
aI2
aI2
aI1
aI1
aI1
aI1
aI1
aI1
aI0
aI0
aI0
aI0
aI0
aI0
aI0
aI0
aI0
aI0
aI0
aI0
aI0
aI0
aI0
aI0
aI0
aI0
aI1
aI1
aI1
aI1
aI1
aI1
aI1
aI1
aI1
asg5
I618
sa(dp86
S'failed'
p87
I01
sag86
a(dp88
g3
(lp89
I3
aI3
aI3
aI2
aI2
aI1
aI1
aI1
aI1
aI1
aI0
aI1
aI1
aI1
aI0
aI0
aI3
aI0
aI3
aI3
aI3
aI3
aI3
aI3
aI3
aI3
aI2
aI3
aI2
aI2
aI2
aI2
aI2
aI2
aI1
aI2
aI1
aI1
aI0
aI1
aI0
aI1
aI1
aI1
aI1
aI2
aI1
aI1
aI1
aI1
aI1
aI0
aI0
aI0
aI0
aI0
aI0
aI0
aI0
aI0
aI3
aI3
aI3
aI3
aI3
aI3
aI3
aI3
aI3
aI3
aI3
aI3
aI3
aI3
aI3
aI2
aI2
aI2
aI2
aI2
aI2
aI2
aI2
aI2
aI2
aI2
aI2
aI2
aI2
aI2
aI1
aI1
aI1
aI1
aI1
aI2
aI2
aI3
aI3
aI3
aI3
aI3
aI2
aI2
aI1
aI1
aI1
aI1
aI1
aI2
aI2
aI3
aI3
aI3
aI3
aI3
aI2
aI2
aI1
aI1
aI1
aI1
aI1
aI2
aI2
aI3
aI3
aI3
aI3
aI3
aI2
aI2
aI1
aI1
aI1
aI1
aI1
aI2
aI2
aI3
aI3
aI3
aI3
aI3
aI2
aI2
aI2
aI1
aI1
aI1
aI1
aI1
aI2
aI2
aI3
aI3
aI2
aI2
aI1
aI1
aI1
aI2
aI1
aI1
aI2
aI2
aI3
aI3
aI3
aI2
aI3
aI3
aI0
aI3
aI0
aI3
aI3
aI2
aI2
aI2
aI1
aI2
aI1
aI1
aI1
aI1
aI1
aI1
aI1
aI1
aI1
aI1
aI1
aI2
aI2
aI2
aI2
aI3
aI3
aI0
aI3
aI0
aI3
aI3
aI2
aI3
aI2
aI2
aI2
aI1
aI1
aI1
aI1
aI2
aI2
aI3
aI3
aI3
aI3
aI3
aI3
aI3
aI0
aI3
aI3
aI2
aI2
aI2
aI2
aI2
aI2
aI2
aI2
aI1
aI2
aI2
aI2
aI2
aI1
aI2
aI2
aI2
aI1
aI1
aI1
aI2
aI2
aI1
aI2
aI1
aI1
aI1
aI1
aI0
aI1
aI0
aI0
aI0
aI0
aI0
aI1
aI1
aI0
aI0
aI0
aI1
aI0
aI1
aI1
aI0
aI0
aI0
aI3
aI0
aI0
aI0
aI0
aI0
aI0
aI0
aI1
aI1
aI1
aI0
aI0
aI1
aI1
aI0
aI1
aI1
aI1
aI0
aI3
aI3
aI0
aI1
aI1
aI1
aI1
aI1
aI0
aI1
aI2
aI1
aI0
aI0
aI1
aI0
aI0
aI1
aI1
aI0
aI0
aI0
aI1
aI2
aI2
aI1
aI1
aI1
aI1
aI1
aI0
aI0
aI0
aI1
aI2
aI1
aI0
aI1
aI2
aI1
aI2
aI1
aI0
aI0
aI3
aI0
aI1
aI1
aI2
aI1
aI0
aI1
aI2
aI1
aI2
aI1
aI2
aI2
aI1
aI1
aI0
aI0
aI1
aI1
aI1
aI0
aI0
aI0
aI0
aI0
aI0
aI0
aI0
aI0
aI0
aI0
aI0
aI0
aI0
aI1
aI1
aI1
aI1
aI1
aI0
aI0
aI0
aI3
aI0
aI3
aI3
aI3
aI3
aI0
aI0
aI1
aI1
aI1
aI1
aI1
aI0
aI0
aI0
aI0
aI0
aI3
aI3
aI3
aI3
aI0
aI3
aI0
aI0
aI0
aI1
aI1
aI1
aI1
aI0
aI0
aI0
aI0
aI0
aI0
aI1
aI1
aI1
aI2
aI2
aI2
aI2
aI2
aI2
aI2
aI2
aI2
aI2
aI2
aI2
aI2
aI2
aI2
aI2
aI2
aI2
aI2
aI2
aI2
aI2
aI2
aI2
aI2
aI2
aI2
aI2
aI2
aI2
aI2
aI2
aI2
aI2
aI2
aI2
aI2
aI2
aI2
aI2
aI2
aI2
aI2
aI2
aI2
aI1
aI1
aI0
aI0
aI0
aI0
aI0
aI0
aI0
aI0
aI0
aI0
aI0
aI0
aI0
aI0
aI0
aI0
aI0
aI0
aI0
aI0
aI0
aI0
aI0
aI0
aI0
aI0
aI0
aI0
aI0
aI0
aI0
aI0
aI0
aI0
aI0
aI0
aI0
aI0
aI0
aI0
aI0
aI0
aI0
aI0
aI0
aI1
aI1
aI2
aI2
aI2
aI2
aI2
aI2
aI2
aI2
aI2
aI2
aI2
aI2
aI2
aI2
aI2
aI2
aI2
aI2
aI1
aI1
aI1
aI1
aI1
aI1
aI0
aI0
aI0
aI0
aI0
aI0
aI0
aI0
aI0
aI0
aI0
aI0
aI0
aI0
aI0
aI0
aI0
aI0
aI1
aI1
aI1
aI1
aI1
aI1
aI1
aI1
aI1
aI2
aI2
aI2
aI2
aI2
aI2
aI3
aI2
aI2
aI2
aI2
aI2
aI2
aI1
aI2
aI2
aI2
aI3
aI2
aI1
aI2
aI2
aI2
aI2
aI2
aI3
aI2
aI2
aI1
aI2
aI2
aI2
aI2
aI2
aI2
aI3
aI2
aI2
aI2
aI2
aI2
aI2
aI2
aI2
aI2
aI3
aI3
aI3
aI3
aI3
aI3
aI3
aI3
aI3
aI3
aI3
aI3
aI3
aI3
aI2
aI2
aI2
aI2
aI2
aI2
aI2
aI2
aI3
aI2
aI2
aI3
aI3
aI3
aI3
aI3
aI3
aI3
aI3
aI3
aI2
aI2
aI2
aI2
aI2
aI2
aI2
aI2
aI2
aI3
aI3
aI3
aI3
aI3
aI3
aI3
aI3
aI2
aI2
aI2
aI2
aI2
aI3
aI3
aI3
aI2
aI2
aI2
aI2
aI2
aI2
aI1
aI1
aI2
aI2
aI2
aI1
aI2
aI1
aI2
aI1
aI2
aI1
aI2
aI1
aI2
aI2
aI2
aI1
aI1
aI1
aI1
aI1
aI1
aI1
aI1
aI0
aI0
aI0
aI0
aI0
aI0
aI0
aI0
aI0
aI3
aI0
aI3
aI0
aI0
aI0
aI0
aI0
aI0
aI0
aI0
aI0
aI3
aI3
aI3
aI3
aI3
aI3
aI2
aI2
aI2
aI3
aI2
aI3
aI2
aI3
aI2
aI3
aI2
aI3
aI2
aI2
aI1
aI2
aI1
aI1
aI0
aI1
aI0
aI0
aI1
aI0
aI1
aI1
aI1
aI2
aI1
aI2
aI3
aI2
aI2
aI1
aI1
aI1
aI2
aI2
aI2
aI2
aI2
aI2
aI2
aI2
aI2
aI3
aI3
aI1
aI3
aI1
aI1
aI3
aI1
aI3
aI3
aI1
aI1
aI3
aI1
aI3
aI1
aI1
aI1
aI0
aI0
aI0
aI0
aI2
aI0
aI2
aI0
aI2
aI0
aI2
aI0
aI0
aI2
aI2
aI2
aI0
aI2
aI2
aI2
aI0
aI2
aI3
aI3
aI3
aI3
aI1
aI3
aI1
aI1
aI3
aI1
aI3
aI1
aI3
aI1
aI1
aI3
aI1
aI3
aI1
aI3
aI1
aI3
aI1
aI1
aI0
aI0
aI2
aI0
aI2
aI2
aI3
aI3
aI3
aI1
aI1
aI1
aI0
aI0
aI2
aI2
aI3
aI3
aI1
aI3
aI1
aI3
aI1
aI1
aI3
aI3
aI1
aI3
aI1
aI3
aI3
aI3
aI1
aI3
aI1
aI1
aI3
aI1
aI1
aI1
aI3
aI3
aI3
aI1
aI3
aI1
aI3
aI3
aI3
aI1
aI3
aI3
aI3
aI3
aI3
aI3
aI3
aI3
aI3
aI3
aI3
aI3
aI3
aI0
aI0
aI0
aI0
aI0
aI0
aI0
aI3
asg5
I906
sa(dp90
g3
(lp91
I3
aI3
aI3
aI2
aI2
aI1
aI1
aI1
aI1
aI1
aI0
aI1
aI1
aI1
aI0
aI0
aI3
aI0
aI3
aI3
aI3
aI3
aI3
aI3
aI3
aI3
aI2
aI3
aI2
aI2
aI2
aI2
aI2
aI2
aI1
aI2
aI1
aI1
aI0
aI1
aI0
aI1
aI1
aI1
aI1
aI2
aI1
aI1
aI1
aI1
aI1
aI0
aI0
aI0
aI0
aI0
aI0
aI0
aI0
aI0
aI3
aI3
aI3
aI3
aI3
aI3
aI3
aI3
aI3
aI3
aI3
aI3
aI3
aI3
aI3
aI2
aI2
aI2
aI2
aI2
aI2
aI2
aI2
aI2
aI2
aI2
aI2
aI2
aI2
aI2
aI1
aI1
aI1
aI1
aI1
aI2
aI2
aI3
aI3
aI3
aI3
aI3
aI2
aI2
aI1
aI1
aI1
aI1
aI1
aI2
aI2
aI3
aI3
aI3
aI3
aI3
aI2
aI2
aI1
aI1
aI1
aI1
aI1
aI2
aI2
aI3
aI3
aI3
aI3
aI3
aI2
aI2
aI1
aI1
aI1
aI1
aI1
aI2
aI2
aI3
aI3
aI3
aI3
aI3
aI2
aI2
aI2
aI1
aI1
aI1
aI1
aI1
aI2
aI2
aI3
aI3
aI2
aI2
aI1
aI1
aI1
aI2
aI1
aI1
aI2
aI2
aI3
aI3
aI3
aI2
aI3
aI3
aI0
aI3
aI0
aI3
aI3
aI2
aI2
aI2
aI1
aI2
aI1
aI1
aI1
aI1
aI1
aI1
aI1
aI1
aI1
aI1
aI1
aI2
aI2
aI2
aI2
aI3
aI3
aI0
aI3
aI0
aI3
aI3
aI2
aI3
aI2
aI2
aI2
aI1
aI1
aI1
aI1
aI2
aI2
aI3
aI3
aI3
aI3
aI3
aI3
aI3
aI0
aI3
aI3
aI2
aI2
aI2
aI2
aI2
aI2
aI2
aI2
aI1
aI2
aI2
aI2
aI2
aI1
aI2
aI2
aI2
aI1
aI1
aI1
aI2
aI2
aI1
aI2
aI1
aI1
aI1
aI1
aI1
aI0
aI0
aI0
aI0
aI0
aI0
aI1
aI1
aI0
aI0
aI0
aI1
aI0
aI1
aI1
aI0
aI0
aI0
aI3
aI0
aI0
aI0
aI0
aI0
aI0
aI0
aI1
aI1
aI1
aI0
aI0
aI1
aI1
aI0
aI1
aI0
aI3
aI0
aI0
aI0
aI1
aI0
aI0
aI0
aI1
aI2
aI1
aI0
aI1
aI2
aI2
aI3
aI2
aI3
aI0
aI3
aI3
aI0
aI0
aI0
aI0
aI1
aI1
aI1
aI2
aI1
aI0
aI0
aI0
aI3
aI3
aI3
aI3
aI0
aI0
aI1
aI0
aI1
aI1
aI1
aI2
aI1
aI1
aI1
aI1
aI1
aI2
aI1
aI1
aI1
aI1
aI2
aI2
aI3
aI2
aI1
aI2
aI2
aI1
aI1
aI1
aI1
aI0
aI0
aI1
aI2
aI2
aI1
aI0
aI1
aI1
aI0
aI3
aI0
aI3
aI3
aI3
aI0
aI1
aI1
aI1
aI1
aI2
aI1
aI1
aI1
aI0
aI3
aI3
aI3
aI2
aI2
aI1
aI1
aI1
aI1
aI0
aI0
aI1
aI2
aI2
aI2
aI1
aI0
aI0
aI0
aI2
aI3
aI3
aI2
aI2
aI3
aI2
aI3
aI2
aI3
aI2
aI2
aI3
aI2
aI1
aI1
aI1
aI1
aI2
aI2
aI2
aI2
aI3
aI3
aI2
aI2
aI1
aI0
aI1
aI2
aI2
aI2
aI2
aI2
aI2
aI2
aI2
aI1
aI1
aI0
aI0
aI0
aI0
aI0
aI3
aI2
aI3
aI1
aI3
aI2
aI2
aI2
aI2
aI3
aI3
aI3
aI3
aI3
aI3
aI3
aI3
aI3
aI3
aI0
aI3
aI2
aI3
aI3
aI3
aI3
aI3
aI3
aI2
aI2
aI2
aI2
aI2
aI2
aI3
aI3
aI3
aI3
aI2
aI3
aI2
aI3
aI3
aI3
aI2
aI2
aI3
asg5
I491
sag86
ag86
ag86
ag86
ag86
ag86
ag86
ag86
ag86
ag86
aa(lp92
g6
ag14
ag51
ag84
a(dp93
g3
(lp94
sg5
I0
sa(dp95
g3
(lp96
I3
aI3
aI3
aI3
aI3
aI3
aI3
aI2
aI2
aI2
aI2
aI2
aI2
aI2
aI2
aI2
aI2
aI2
aI2
aI2
aI2
aI2
aI2
aI2
aI2
aI2
aI2
aI2
aI2
aI2
aI2
aI2
aI2
aI2
aI2
aI2
aI2
aI2
aI2
aI2
aI2
aI2
aI2
aI2
aI2
aI3
aI3
aI3
aI3
aI3
aI3
aI3
aI3
aI2
aI2
aI2
aI2
aI2
aI2
aI2
aI2
aI3
aI2
aI2
aI3
aI3
aI3
aI3
aI3
aI3
aI3
aI3
aI3
aI2
aI2
aI2
aI2
aI2
aI2
aI2
aI2
aI2
aI3
aI3
aI3
aI3
aI3
aI3
aI3
aI3
aI2
aI2
aI2
aI2
aI2
aI3
aI3
aI3
aI2
aI2
aI2
aI2
aI2
aI2
aI1
aI1
aI2
aI1
aI1
aI0
aI1
aI1
asg5
I112
sa(dp97
g3
(lp98
I2
aI1
aI2
aI1
aI1
aI0
aI0
aI1
aI2
aI1
aI2
aI2
aI1
aI1
aI1
aI1
aI2
aI2
aI3
aI3
aI3
aI3
aI3
aI3
aI3
aI0
aI3
aI3
aI2
aI2
aI2
aI2
aI2
aI2
aI2
aI2
aI1
aI2
aI2
aI2
aI2
aI1
aI2
aI2
aI2
aI1
aI1
aI1
aI2
aI2
aI1
aI2
aI1
aI1
aI1
aI0
aI1
aI2
aI1
aI0
aI0
aI0
aI0
aI0
aI0
aI1
aI1
aI0
aI0
aI0
aI1
aI0
aI1
aI1
aI0
aI0
aI0
aI3
aI0
aI0
aI0
aI0
aI0
aI0
aI0
aI1
aI1
aI1
aI0
aI0
aI1
aI1
aI0
aI1
aI0
aI3
aI0
aI1
aI1
aI2
aI1
aI0
aI0
aI0
aI1
aI0
aI1
aI2
aI2
aI3
aI2
aI1
aI1
aI0
aI0
aI0
aI1
aI2
aI2
aI1
aI0
aI0
aI1
aI1
aI1
aI1
aI2
aI1
aI0
aI0
aI3
aI3
aI0
aI1
aI1
aI1
aI1
aI1
aI1
aI2
aI1
aI0
aI0
aI1
aI1
aI1
aI2
aI1
aI2
aI1
aI2
aI1
aI2
aI1
aI0
aI0
aI3
aI0
aI1
aI0
aI1
aI2
aI1
aI1
aI1
aI0
aI0
aI1
aI1
aI1
aI0
aI0
aI0
aI0
aI0
aI0
aI0
aI0
aI0
aI0
aI0
aI0
aI0
aI0
aI1
aI1
aI1
aI1
aI1
aI0
aI0
aI0
aI0
aI3
aI3
aI3
aI3
aI3
aI0
aI0
aI1
aI1
aI1
aI1
aI1
aI0
aI0
aI0
aI0
aI0
aI3
aI3
aI3
aI3
aI0
aI3
aI0
aI0
aI0
aI1
aI1
aI1
aI1
aI0
aI0
aI0
aI0
aI0
aI0
aI1
aI1
aI1
aI2
aI2
aI2
aI2
aI2
aI2
aI2
aI2
aI2
aI2
aI2
aI2
aI2
aI2
aI2
aI2
aI2
aI2
aI2
aI2
aI2
aI2
aI2
aI2
aI2
aI2
aI2
aI2
aI2
aI2
aI2
aI2
aI2
aI2
aI2
aI2
aI2
aI2
aI2
aI2
aI2
aI2
aI2
aI2
aI2
aI1
aI1
aI0
aI0
aI0
aI0
aI0
aI0
aI0
aI0
aI0
aI0
aI0
aI0
aI0
aI0
aI0
aI0
aI0
aI0
aI0
aI0
aI0
aI0
aI0
aI0
aI0
aI0
aI0
aI0
aI0
aI0
aI0
aI0
aI0
aI0
aI0
aI0
aI0
aI0
aI0
aI0
aI0
aI0
aI0
aI0
aI0
aI1
aI1
aI2
aI2
aI2
aI2
aI2
aI2
aI2
aI2
aI2
aI2
aI2
aI2
aI2
aI2
aI2
aI2
aI2
aI2
aI1
aI1
aI1
aI1
aI1
aI1
aI0
aI0
aI0
aI0
aI0
aI0
aI0
aI0
aI0
aI0
aI0
aI0
aI0
aI0
aI0
aI0
aI0
aI0
aI1
aI1
aI1
aI1
aI1
aI1
aI1
aI1
aI1
asg5
I377
sa(dp99
g3
(lp100
I1
aI2
aI2
aI2
aI2
aI2
aI2
aI2
aI1
aI1
aI1
aI1
aI1
aI1
aI1
aI1
aI1
aI0
aI0
aI0
aI3
aI0
aI3
aI0
aI3
aI0
aI3
aI0
aI3
aI0
aI0
aI0
aI3
aI2
aI3
aI3
aI0
aI1
aI0
aI0
aI0
aI0
aI0
aI0
aI1
aI1
aI1
aI0
aI0
aI0
aI0
aI0
aI1
aI1
aI1
aI1
aI1
aI1
aI1
aI1
aI0
aI0
aI0
aI0
aI0
aI0
aI0
aI0
aI0
aI1
aI1
aI1
aI1
aI1
aI1
aI1
aI1
aI1
aI0
aI0
aI1
aI0
aI0
aI0
aI0
aI0
aI0
aI0
aI0
aI1
aI1
aI1
aI1
aI1
aI1
aI1
aI1
aI1
aI1
aI1
aI1
aI0
aI0
aI0
aI0
aI0
aI0
aI0
aI0
aI0
aI0
aI0
aI0
aI0
aI0
aI0
aI0
aI0
aI0
aI0
aI0
aI0
aI0
aI0
aI0
aI0
aI0
aI0
aI0
aI0
aI0
aI0
aI0
aI0
aI0
aI0
aI0
aI0
aI0
aI1
aI1
aI1
asg5
I142
sa(dp101
S'trail'
p102
(lp103
I3
aI3
aI3
aI3
aI3
aI3
aI3
aI3
aI3
aI3
aI3
aI3
aI3
aI3
aI3
aI3
aI3
aI2
aI2
aI2
aI2
aI2
aI2
aI2
aI2
aI2
aI2
aI2
aI2
aI2
aI2
aI2
aI2
aI2
aI2
aI2
aI2
aI2
aI2
aI2
aI2
aI2
aI2
aI2
aI2
aI2
aI2
aI2
aI2
aI2
aI2
aI2
aI2
aI2
aI2
aI2
aI2
aI2
aI2
aI2
aI2
aI2
aI3
aI3
aI0
aI0
aI0
aI0
aI0
aI0
aI0
aI0
aI0
aI0
aI0
aI0
aI0
aI0
aI0
aI0
aI0
aI0
aI0
aI0
aI0
aI0
aI0
aI0
aI0
aI0
aI0
aI0
aI0
aI0
aI0
aI0
aI0
aI0
aI0
aI0
aI0
aI0
aI0
aI0
aI0
aI0
aI0
aI0
aI0
aI3
aI3
aI3
aI2
aI2
aI2
aI2
aI2
aI2
aI3
aI3
aI3
aI3
aI2
aI2
aI2
aI1
aI1
aI1
aI1
aI1
aI2
aI2
aI2
aI2
aI2
aI2
aI3
aI3
aI3
aI3
aI3
aI2
aI2
aI1
aI2
aI1
aI0
aI1
aI2
aI1
aI1
aI2
aI2
aI2
aI3
aI3
aI3
aI3
aI3
aI2
aI2
aI2
aI2
aI2
aI2
aI2
aI2
aI2
aI2
aI2
aI2
aI2
aI2
aI3
aI3
aI0
aI3
aI2
aI2
aI2
aI3
aI3
aI2
aI0
aI3
aI1
aI1
aI1
aI3
aI1
aI0
aI2
aI3
aI3
aI2
aI3
aI1
aI0
aI1
aI1
aI3
aI3
aI1
aI1
aI3
aI1
aI0
aI2
aI0
aI0
aI1
aI0
aI0
aI2
aI2
aI1
aI3
aI1
aI3
aI0
aI3
aI1
aI3
aI2
aI0
aI1
aI2
aI1
aI1
aI2
aI2
aI2
aI1
aI1
aI0
aI0
aI0
aI0
aI0
aI0
aI0
aI0
aI0
aI0
aI0
aI0
aI0
aI0
aI0
aI1
aI1
aI2
aI1
aI0
aI3
aI3
aI1
aI3
aI3
aI1
aI1
aI2
aI2
aI1
aI2
aI2
aI2
aI2
aI2
aI2
aI2
aI2
aI2
aI2
aI2
aI2
aI2
aI2
aI2
aI3
aI3
aI3
aI3
aI3
aI3
aI2
aI2
aI2
aI1
aI1
aI1
aI1
aI1
aI2
aI2
aI3
aI3
aI2
aI3
aI3
aI3
aI2
aI2
aI2
aI2
aI2
aI2
aI3
aI2
aI2
aI3
aI3
aI3
aI1
aI1
aI1
aI3
aI3
aI1
aI1
aI3
aI3
aI1
aI3
aI3
aI1
aI1
aI3
aI3
aI3
aI3
aI3
aI3
aI3
aI3
aI3
aI3
aI3
aI3
aI3
aI3
aI3
aI3
aI3
aI3
aI3
aI3
aI3
aI2
aI2
aI2
aI2
aI2
aI2
aI2
aI2
aI2
aI2
aI2
aI3
aI3
aI3
aI0
aI3
aI3
aI3
aI2
aI3
aI3
aI0
aI3
asS'length'
p104
I371
sa(dp105
g102
(lp106
I3
aI3
aI3
aI3
aI3
aI3
aI3
aI3
aI3
aI3
aI3
aI3
aI3
aI3
aI3
aI3
aI3
aI2
aI2
aI2
aI2
aI2
aI2
aI2
aI2
aI2
aI2
aI2
aI2
aI2
aI2
aI2
aI2
aI2
aI2
aI2
aI2
aI2
aI2
aI2
aI2
aI2
aI2
aI2
aI2
aI2
aI2
aI2
aI2
aI2
aI2
aI2
aI2
aI2
aI2
aI2
aI2
aI2
aI2
aI2
aI2
aI2
aI3
aI3
aI0
aI0
aI0
aI0
aI0
aI0
aI0
aI0
aI0
aI0
aI0
aI0
aI0
aI0
aI0
aI0
aI0
aI0
aI0
aI0
aI0
aI0
aI0
aI0
aI0
aI0
aI0
aI0
aI0
aI0
aI0
aI0
aI0
aI0
aI0
aI0
aI0
aI0
aI0
aI0
aI0
aI0
aI0
aI0
aI0
aI3
aI3
aI3
aI2
aI2
aI2
aI2
aI2
aI2
aI3
aI3
aI3
aI3
aI2
aI2
aI2
aI1
aI1
aI1
aI1
aI1
aI2
aI2
aI2
aI2
aI2
aI2
aI3
aI3
aI3
aI3
aI3
aI2
aI2
aI1
aI1
aI1
aI1
aI1
asg104
I148
sa(dp107
g102
(lp108
I3
aI3
aI3
aI3
aI3
aI3
aI3
aI3
aI3
aI3
aI3
aI3
aI3
aI3
aI3
aI3
aI3
aI2
aI2
aI2
aI2
aI2
aI2
aI2
aI2
aI2
aI2
aI2
aI2
aI2
aI2
aI2
aI2
aI2
aI2
aI2
aI2
aI2
aI2
aI2
aI2
aI2
aI2
aI2
aI2
aI2
aI2
aI2
aI2
aI2
aI2
aI2
aI2
aI2
aI2
aI2
aI2
aI2
aI2
aI2
aI2
aI2
aI3
aI3
aI0
aI0
aI0
aI0
aI0
aI0
aI0
aI0
aI0
aI0
aI0
aI0
aI0
aI0
aI0
aI0
aI0
aI0
aI0
aI0
aI0
aI0
aI0
aI0
aI0
aI0
aI0
aI0
aI0
aI0
aI0
aI0
aI0
aI0
aI0
aI0
aI0
aI0
aI0
aI0
aI0
aI0
aI0
aI0
aI0
aI3
aI3
aI3
aI2
aI2
aI2
aI2
aI2
aI2
aI3
aI3
aI3
aI3
aI2
aI2
aI2
aI1
aI1
aI1
aI1
aI1
aI2
aI2
aI2
aI2
aI2
aI2
aI3
aI3
aI3
aI3
aI3
aI2
aI2
aI1
aI1
aI1
aI2
aI1
aI0
aI1
aI2
aI2
aI2
aI2
aI3
aI3
aI3
aI3
aI3
aI2
aI2
aI2
aI2
aI2
aI2
aI2
aI2
aI2
aI2
aI2
aI2
aI2
aI2
aI3
aI3
aI3
aI2
aI2
aI3
aI3
aI3
aI3
aI3
aI3
aI3
asg104
I185
sa(dp109
g102
(lp110
I3
aI3
aI3
aI3
aI3
aI3
aI3
aI3
aI3
aI3
aI3
aI3
aI3
aI3
aI3
aI3
aI3
aI2
aI2
aI2
aI2
aI2
aI2
aI2
aI2
aI2
aI2
aI2
aI2
aI2
aI2
aI2
aI2
aI2
aI2
aI2
aI2
aI2
aI2
aI2
aI2
aI2
aI2
aI2
aI2
aI2
aI2
aI2
aI2
aI2
aI2
aI2
aI2
aI2
aI2
aI2
aI2
aI2
aI2
aI2
aI2
aI2
aI3
aI3
aI0
aI0
aI0
aI0
aI0
aI0
aI0
aI0
aI0
aI0
aI0
aI0
aI0
aI0
aI0
aI0
aI0
aI0
aI0
aI0
aI0
aI0
aI0
aI0
aI0
aI0
aI0
aI0
aI0
aI0
aI0
aI0
aI0
aI0
aI0
aI0
aI0
aI0
aI0
aI0
aI0
aI0
aI0
aI0
aI0
aI3
aI3
aI3
aI2
aI2
aI2
aI2
aI2
aI2
aI3
aI3
aI3
aI3
aI2
aI2
aI2
aI1
aI1
aI1
aI1
aI1
aI2
aI2
aI2
aI2
aI2
aI2
aI3
aI3
aI3
aI3
aI3
aI2
aI2
aI1
aI1
aI2
aI1
aI0
aI1
aI2
aI1
aI2
aI2
aI2
aI3
aI3
aI3
aI3
aI3
aI2
aI2
aI2
aI2
aI2
aI2
aI2
aI2
aI2
aI2
aI2
aI2
aI2
aI2
aI3
aI3
aI0
aI3
aI2
aI2
aI2
aI3
aI3
aI3
aI3
aI3
aI3
aI0
aI0
aI1
aI0
aI3
aI0
aI3
aI2
aI2
aI2
aI2
aI3
aI0
aI3
aI3
aI3
aI2
aI2
aI3
aI0
aI3
aI3
aI3
aI3
aI3
aI3
aI3
aI3
aI2
aI1
aI2
aI3
aI3
aI2
aI3
aI3
aI2
aI1
aI2
aI1
aI0
aI1
aI0
aI1
aI1
aI1
aI2
aI3
aI2
aI2
aI3
aI0
aI0
aI2
aI3
aI2
aI2
aI3
aI3
aI3
aI3
aI3
aI0
aI1
aI1
aI0
aI3
aI3
aI0
aI0
aI1
aI0
aI0
aI0
aI3
aI0
aI1
aI0
aI3
aI3
aI3
aI2
aI1
aI2
aI2
aI1
aI2
aI3
aI3
aI3
aI2
aI1
aI2
aI3
aI2
aI1
aI2
aI2
aI1
aI0
aI0
aI0
aI0
aI3
aI3
aI3
aI2
aI2
aI2
aI2
aI2
aI3
aI3
aI2
aI2
aI3
aI3
aI3
aI2
aI2
aI2
aI2
aI2
aI2
aI2
aI1
aI2
aI2
aI2
aI3
aI3
aI2
aI3
aI2
aI2
aI2
aI3
aI3
aI2
aI2
aI2
aI2
aI2
aI3
aI3
aI2
aI3
aI3
aI3
aI0
aI0
aI0
aI3
aI3
aI3
aI3
aI0
aI0
aI0
aI3
aI0
aI0
aI0
aI0
aI3
aI0
aI0
aI0
aI0
aI0
aI0
aI0
aI0
aI1
aI1
aI2
aI1
aI1
aI1
aI1
aI1
aI1
aI1
aI0
aI0
aI3
aI3
aI3
aI3
aI0
aI0
aI0
aI1
aI0
aI1
aI1
aI2
aI1
aI2
aI1
aI1
aI0
aI0
aI0
aI0
aI3
aI3
aI3
aI3
aI3
aI3
aI3
aI3
aI3
aI3
aI3
aI0
aI3
aI0
aI0
aI0
aI1
aI1
aI2
aI1
aI2
aI1
aI1
aI0
aI1
aI1
aI1
aI0
aI0
aI3
aI3
aI0
aI3
aI3
aI3
aI0
aI0
aI1
aI1
aI1
aI1
aI1
aI0
aI0
aI0
aI0
aI0
aI1
aI1
aI0
aI3
aI0
aI0
aI1
aI0
aI0
aI0
aI1
aI1
aI1
aI2
aI1
aI0
aI0
aI3
aI3
aI3
aI3
aI0
aI0
aI1
aI0
aI0
aI0
aI0
aI1
aI2
aI2
aI1
aI0
aI1
aI0
asg104
I473
sa(dp111
g102
(lp112
I3
aI3
aI3
aI3
aI3
aI3
aI3
aI3
aI3
aI3
aI3
aI3
aI3
aI3
aI3
aI3
aI3
aI2
aI2
aI2
aI2
aI2
aI2
aI2
aI2
aI2
aI2
aI2
aI2
aI2
aI2
aI2
aI2
aI2
aI2
aI2
aI2
aI2
aI2
aI2
aI2
aI2
aI2
aI2
aI2
aI2
aI2
aI2
aI2
aI2
aI2
aI2
aI2
aI2
aI2
aI2
aI2
aI2
aI2
aI2
aI2
aI2
aI3
aI3
aI0
aI0
aI0
aI0
aI0
aI0
aI0
aI0
aI0
aI0
aI0
aI0
aI0
aI0
aI0
aI0
aI0
aI0
aI0
aI0
aI0
aI0
aI0
aI0
aI0
aI0
aI0
aI0
aI0
aI0
aI0
aI0
aI0
aI0
aI0
aI0
aI0
aI0
aI0
aI0
aI0
aI0
aI0
aI0
aI0
aI3
aI3
aI3
aI2
aI2
aI2
aI2
aI2
aI2
aI3
aI3
aI3
aI3
aI2
aI2
aI2
aI1
aI1
aI1
aI1
aI1
aI2
aI2
aI2
aI2
aI2
aI2
aI3
aI3
aI3
aI3
aI3
aI2
aI2
aI1
aI1
aI1
aI2
aI1
aI1
aI2
aI2
aI2
aI3
aI3
aI3
aI3
aI3
aI2
aI2
aI2
aI2
aI2
aI2
aI2
aI2
aI2
aI2
aI2
aI2
aI2
aI2
aI3
aI3
aI3
aI2
aI2
aI3
aI3
aI3
aI0
aI3
aI2
aI3
aI3
aI3
aI3
aI3
aI0
aI3
aI3
aI2
aI3
aI3
aI3
aI3
aI3
aI3
aI3
aI3
aI3
aI2
aI2
aI2
aI3
aI0
aI3
aI2
aI2
aI2
aI1
asg104
I210
sa(dp113
g102
(lp114
I3
aI3
aI3
aI3
aI3
aI3
aI3
aI3
aI3
aI3
aI3
aI3
aI3
aI3
aI3
aI3
aI3
aI2
aI2
aI2
aI2
aI2
aI2
aI2
aI2
aI2
aI2
aI2
aI2
aI2
aI2
aI2
aI2
aI2
aI2
aI2
aI2
aI2
aI2
aI2
aI2
aI2
aI2
aI2
aI2
aI2
aI2
aI2
aI2
aI2
aI2
aI2
aI2
aI2
aI2
aI2
aI2
aI2
aI2
aI2
aI2
aI2
aI3
aI3
aI0
aI0
aI0
aI0
aI0
aI0
aI0
aI0
aI0
aI0
aI0
aI0
aI0
aI0
aI0
aI0
aI0
aI0
aI0
aI0
aI0
aI0
aI0
aI0
aI0
aI0
aI0
aI0
aI0
aI0
aI0
aI0
aI0
aI0
aI0
aI0
aI0
aI0
aI0
aI0
aI0
aI0
aI0
aI0
aI0
aI3
aI3
aI3
aI2
aI2
aI2
aI2
aI2
aI2
aI3
aI3
aI3
aI3
aI2
aI2
aI2
aI1
aI1
aI1
aI1
aI1
aI2
aI2
aI2
aI2
aI2
aI2
aI3
aI3
aI3
aI3
aI3
aI2
aI2
aI1
aI1
aI1
aI2
aI1
aI0
aI1
aI2
aI2
aI2
aI2
aI3
aI3
aI3
aI3
aI3
aI2
aI2
aI2
aI2
aI2
aI2
aI2
aI2
aI2
aI2
aI2
aI2
aI2
aI2
aI3
aI3
aI3
aI2
aI2
aI3
aI3
aI3
aI3
aI3
aI2
aI3
aI0
aI3
aI3
aI0
aI3
aI3
aI3
aI2
aI3
aI3
aI3
aI3
aI3
aI3
aI3
aI3
aI3
aI2
aI2
aI3
aI2
aI1
aI1
aI0
aI1
aI2
aI2
aI2
aI2
aI3
aI3
aI2
aI3
aI3
aI3
aI0
aI0
aI3
aI2
aI2
aI3
aI0
aI3
aI0
aI1
aI0
aI0
aI3
aI2
aI3
aI2
aI2
aI3
aI2
aI1
aI1
aI3
aI1
aI0
aI0
aI0
aI0
aI0
aI3
aI3
aI3
aI2
aI1
aI1
aI2
aI3
aI2
aI3
aI2
aI2
aI2
aI3
aI3
aI2
aI2
aI3
aI3
aI3
aI2
aI2
aI2
aI2
aI2
aI2
aI2
aI1
aI2
aI2
aI2
aI3
aI3
aI2
aI3
aI2
aI2
aI2
aI3
aI3
aI2
aI2
aI2
aI2
aI2
aI3
aI3
aI2
aI1
aI1
aI2
aI1
aI2
aI1
aI2
aI3
aI2
aI2
aI1
aI2
aI2
aI3
aI2
asg104
I311
sa(dp115
g3
(lp116
I1
aI1
aI1
aI1
aI1
aI1
aI1
aI1
aI1
aI0
aI0
aI1
aI0
aI0
aI0
aI0
aI0
aI0
aI0
aI0
aI1
aI1
aI1
aI1
aI1
aI1
aI1
aI1
aI1
aI1
aI1
aI1
aI0
aI0
aI0
aI0
aI0
aI0
aI0
aI0
aI0
aI0
aI0
aI0
aI0
aI0
aI0
aI0
aI0
aI0
aI0
aI0
aI0
aI0
aI0
aI0
aI0
aI0
aI0
aI0
aI0
aI0
aI0
aI0
aI0
aI0
aI0
aI0
aI0
aI0
aI1
aI1
aI1
asg5
I73
sa(dp117
g102
(lp118
I3
aI3
aI3
aI3
aI3
aI3
aI3
aI3
aI3
aI3
aI3
aI3
aI3
aI3
aI3
aI3
aI3
aI2
aI2
aI2
aI2
aI2
aI2
aI2
aI2
aI2
aI2
aI2
aI2
aI2
aI2
aI2
aI2
aI2
aI2
aI2
aI2
aI2
aI2
aI2
aI2
aI2
aI2
aI2
aI2
aI2
aI2
aI2
aI2
aI2
aI2
aI2
aI2
aI2
aI2
aI2
aI2
aI2
aI2
aI2
aI2
aI2
aI3
aI3
aI0
aI0
aI0
aI0
aI0
aI0
aI0
aI0
aI0
aI0
aI0
aI0
aI0
aI0
aI0
aI0
aI0
aI0
aI0
aI0
aI0
aI0
aI0
aI0
aI0
aI0
aI0
aI0
aI0
aI0
aI0
aI0
aI0
aI0
aI0
aI0
aI0
aI0
aI0
aI0
aI0
aI0
aI0
aI0
aI0
aI3
aI3
aI3
aI2
aI2
aI2
aI2
aI2
aI2
aI3
aI3
aI3
aI3
aI2
aI2
aI2
aI1
aI1
aI1
aI1
aI1
aI2
aI2
aI2
aI2
aI2
aI2
aI3
aI3
aI3
aI3
aI3
aI2
aI2
aI1
aI1
aI1
aI2
aI1
aI1
aI2
aI2
aI2
aI3
aI3
aI3
aI3
aI3
aI2
aI2
aI2
aI2
aI2
aI2
aI2
aI2
aI2
aI2
aI2
aI2
aI2
aI2
aI3
aI3
aI3
aI2
aI2
aI3
aI3
aI3
aI3
aI3
aI3
aI3
aI3
aI3
aI3
aI3
aI3
aI3
aI3
aI3
aI3
aI3
aI3
aI0
aI0
aI1
aI0
aI3
aI0
aI0
asg104
I201
sa(dp119
g3
(lp120
I0
aI0
aI3
aI0
aI0
aI0
aI0
aI0
aI0
aI0
aI0
aI0
aI1
aI0
aI3
aI0
aI1
aI0
aI0
aI0
aI3
aI0
aI0
aI0
aI1
asg5
I25
sa(dp121
g3
(lp122
I1
aI1
aI1
aI1
aI1
aI1
aI1
aI1
aI1
aI1
aI1
aI1
aI2
aI2
aI2
aI2
aI2
aI2
aI2
aI2
aI2
aI2
aI2
aI2
aI2
aI2
aI2
aI2
aI2
aI2
aI2
aI2
aI2
aI2
aI2
aI2
aI2
aI2
aI2
aI3
aI3
aI3
aI3
aI3
aI3
aI3
aI3
aI3
aI3
aI3
aI3
aI3
aI2
aI2
aI2
aI3
aI3
aI0
aI0
aI0
aI0
aI0
aI0
aI0
aI0
aI0
aI0
aI0
aI0
aI0
aI0
aI0
aI0
aI0
aI0
aI0
aI0
aI3
aI3
aI3
aI3
aI3
aI3
aI3
aI3
aI3
aI2
aI2
aI1
aI1
aI1
aI1
aI2
aI2
aI2
aI3
aI2
aI2
aI1
aI2
aI1
aI2
aI2
aI3
aI2
aI2
aI2
aI3
aI2
aI1
aI2
aI2
aI2
aI3
aI0
aI3
aI3
aI2
aI2
aI2
aI2
aI2
aI2
aI2
aI3
aI3
aI3
aI3
aI3
aI2
aI2
aI1
aI1
aI1
aI2
aI1
aI1
aI2
aI2
aI3
aI3
aI3
aI2
aI3
aI3
aI0
aI3
aI0
aI3
aI3
aI2
aI2
aI2
aI1
aI2
aI1
aI1
aI1
aI1
aI1
aI1
aI1
aI1
aI1
aI1
aI1
aI2
aI2
aI2
aI2
aI3
aI3
aI0
aI3
aI0
aI3
aI3
aI2
aI3
aI2
aI2
aI2
aI1
aI1
aI1
aI1
aI2
aI2
aI3
aI3
aI3
aI3
aI3
aI3
aI3
aI0
aI3
aI3
aI2
aI2
aI2
aI2
aI2
aI2
aI2
aI2
aI1
aI2
aI2
aI2
aI2
aI1
aI2
aI2
aI2
aI1
aI1
aI1
aI2
aI2
aI1
aI2
aI1
aI1
aI1
aI1
aI1
aI0
aI0
aI0
aI0
aI0
aI0
aI1
aI1
aI0
aI0
aI0
aI1
aI0
aI1
aI1
aI0
aI0
aI0
aI3
aI0
aI0
aI0
aI0
aI0
aI0
aI0
aI1
aI1
aI1
aI0
aI0
aI1
aI1
aI0
aI0
aI1
aI2
aI1
aI1
aI1
aI0
aI1
aI2
aI1
aI0
aI1
aI2
aI1
aI0
aI0
aI1
aI2
aI2
aI1
aI1
aI0
aI0
aI3
aI0
aI1
aI0
aI1
aI0
aI1
aI0
aI0
aI1
aI1
aI1
aI1
aI0
aI1
aI1
aI1
aI2
aI3
aI2
aI2
aI3
aI2
aI2
aI1
aI0
aI1
aI0
aI1
aI1
aI1
aI2
aI3
aI3
aI2
aI3
aI3
aI0
aI2
aI1
aI1
aI1
aI1
aI1
aI1
aI0
aI0
aI1
aI0
aI0
aI1
aI1
aI1
aI0
aI0
aI1
aI1
aI1
aI0
aI0
aI0
aI0
aI0
aI0
aI0
aI0
aI0
aI0
aI0
aI0
aI0
aI0
aI1
aI1
aI1
aI1
aI1
aI0
aI0
aI0
aI3
aI3
aI0
aI1
aI1
aI3
aI1
aI2
aI2
aI2
aI0
aI2
aI0
aI2
aI0
aI0
aI2
aI2
aI0
aI2
aI0
aI0
aI3
aI0
aI2
aI1
aI3
aI1
aI3
aI3
aI3
aI0
aI3
aI3
aI2
aI1
aI1
aI3
aI1
aI3
aI3
aI0
aI0
aI0
aI1
aI1
aI1
aI1
aI1
aI0
aI0
aI3
aI3
aI3
aI3
aI0
aI1
aI1
aI1
aI1
aI0
aI0
aI0
aI3
aI3
aI2
aI3
aI0
aI3
aI3
aI0
aI0
aI0
aI1
aI1
aI1
aI1
aI0
aI0
aI0
aI0
aI0
aI0
aI1
aI1
aI1
aI2
aI2
aI2
aI2
aI2
aI2
aI2
aI2
aI2
aI2
aI2
aI2
aI2
aI2
aI2
aI2
aI2
aI2
aI2
aI2
aI2
aI2
aI2
aI2
aI2
aI2
aI2
aI2
aI2
aI2
aI2
aI2
aI2
aI2
aI2
aI2
aI2
aI2
aI2
aI2
aI2
aI2
aI2
aI2
aI2
aI1
aI1
aI0
aI0
aI0
aI0
aI0
aI0
aI0
aI0
aI0
aI0
aI0
aI0
aI0
aI0
aI0
aI0
aI0
aI0
aI0
aI0
aI0
aI0
aI0
aI0
aI0
aI0
aI0
aI0
aI0
aI0
aI0
aI0
aI0
aI0
aI0
aI0
aI0
aI0
aI0
aI0
aI0
aI0
aI0
aI0
aI0
aI1
aI1
aI1
aI1
aI1
aI1
aI1
aI1
aI1
aI1
aI2
aI2
aI2
aI2
aI2
aI2
aI2
aI2
aI2
aI2
aI2
aI2
aI2
aI2
aI2
aI2
aI2
aI2
aI2
aI2
aI2
aI2
aI2
aI2
aI2
aI2
aI2
aI2
aI2
aI2
aI2
aI2
aI2
aI2
aI2
aI2
aI2
aI2
aI1
aI1
aI1
aI1
aI0
aI0
aI0
aI0
aI0
aI0
aI0
aI0
aI0
aI0
aI0
aI0
aI0
aI0
aI0
aI0
aI0
aI0
aI0
aI0
aI0
aI0
aI0
aI0
aI0
aI0
aI0
aI0
aI0
aI0
aI0
aI0
aI0
aI0
aI0
aI0
aI0
aI0
aI1
aI1
aI1
asg5
I635
sa(dp123
g3
(lp124
I0
aI0
aI0
aI0
aI0
aI3
aI0
aI1
aI0
aI0
aI0
aI0
aI0
aI0
aI0
aI0
aI0
aI0
aI0
aI0
aI0
aI0
aI0
aI0
aI0
aI0
aI0
aI1
aI1
aI1
aI1
aI1
aI1
aI1
aI1
aI1
aI1
aI1
aI1
aI1
aI1
aI1
aI1
aI1
aI1
aI1
aI0
aI0
aI0
aI0
aI0
aI0
aI0
aI0
aI1
aI0
aI0
aI0
aI0
aI1
aI0
aI0
aI0
aI0
aI0
aI0
aI0
aI1
aI1
aI1
aI0
aI0
aI0
aI0
aI0
aI0
aI0
aI0
aI0
aI0
aI0
aI0
aI0
aI0
aI1
aI1
aI1
aI1
aI1
aI0
aI0
aI0
aI0
aI3
aI2
aI3
aI0
aI3
aI2
aI3
aI3
aI0
aI0
aI0
aI1
aI1
aI1
aI1
aI1
aI0
aI0
aI0
aI0
aI0
aI3
aI3
aI0
aI3
aI3
aI2
aI3
aI0
aI0
aI0
aI0
aI1
aI1
aI1
aI1
aI0
aI0
aI0
aI0
aI0
aI0
aI1
aI1
aI1
aI2
aI2
aI2
aI2
aI2
aI2
aI2
aI2
aI2
aI2
aI2
aI2
aI2
aI2
aI2
aI2
aI2
aI2
aI2
aI2
aI2
aI2
aI2
aI2
aI2
aI2
aI2
aI2
aI2
aI2
aI2
aI2
aI2
aI2
aI2
aI2
aI2
aI2
aI2
aI2
aI2
aI2
aI2
aI2
aI2
aI1
aI1
aI0
aI0
aI0
aI0
aI0
aI0
aI0
aI0
aI0
aI0
aI0
aI0
aI0
aI0
aI0
aI0
aI0
aI0
aI0
aI0
aI0
aI0
aI0
aI0
aI0
aI0
aI0
aI0
aI0
aI0
aI0
aI0
aI0
aI0
aI0
aI0
aI0
aI0
aI0
aI0
aI0
aI0
aI0
aI0
aI0
aI1
aI1
aI1
aI1
aI1
aI1
aI1
aI1
aI1
aI1
aI2
aI2
aI2
aI2
aI2
aI2
aI2
aI2
aI2
aI2
aI2
aI2
aI2
aI2
aI2
aI2
aI2
aI2
aI2
aI2
aI2
aI2
aI2
aI2
aI2
aI2
aI2
aI2
aI2
aI2
aI2
aI2
aI2
aI2
aI2
aI2
aI2
aI2
aI1
aI1
aI1
aI1
aI1
aI1
aI0
aI0
aI1
aI0
aI3
aI0
aI0
aI0
aI1
aI0
aI0
aI0
aI0
aI3
aI0
aI0
aI1
aI0
aI3
aI0
aI1
aI0
aI0
aI3
aI2
aI2
aI1
aI3
aI0
aI0
aI0
aI1
aI0
aI0
aI0
aI3
aI0
aI0
aI0
aI1
aI0
aI3
aI0
aI0
aI1
aI2
aI2
aI3
aI0
aI0
aI0
aI0
aI1
aI2
aI3
aI1
aI0
aI0
aI0
aI3
aI2
aI1
aI3
aI1
aI2
aI3
aI1
aI3
aI2
aI1
aI3
aI2
aI2
aI2
aI0
aI2
aI0
aI2
aI2
aI0
aI0
aI2
aI0
aI2
aI1
aI0
aI0
aI0
aI3
aI0
aI0
aI2
aI1
aI3
aI0
aI1
aI2
aI3
aI1
aI0
aI3
aI0
aI0
aI0
aI1
aI0
aI0
aI3
aI2
aI1
aI0
aI0
aI0
aI0
aI0
asg5
I399
saa(lp125
g6
ag16
ag53
ag86
ag95
a(dp126
g3
(lp127
sg5
I0
sa(dp128
g3
(lp129
I2
aI1
aI2
aI1
aI1
aI0
aI1
aI1
aI2
aI2
aI1
aI1
aI1
aI1
aI2
aI2
aI3
aI3
aI3
aI3
aI3
aI3
aI3
aI0
aI3
aI3
aI2
aI2
aI2
aI2
aI2
aI2
aI2
aI2
aI1
aI2
aI2
aI2
aI2
aI1
aI2
aI2
aI2
aI1
aI1
aI1
aI2
aI2
aI1
aI2
aI1
aI1
aI1
aI1
aI1
aI0
aI0
aI0
aI0
aI0
aI0
aI1
aI1
aI0
aI0
aI0
aI1
aI0
aI1
aI1
aI0
aI0
aI0
aI3
aI0
aI0
aI0
aI0
aI0
aI0
aI0
aI1
aI1
aI1
aI0
aI0
aI1
aI1
aI0
aI0
aI0
aI0
aI1
aI0
aI0
aI1
aI2
aI2
aI1
aI1
aI0
aI1
aI0
aI1
aI2
aI2
aI1
aI0
aI1
aI2
aI1
aI1
aI2
aI2
aI2
aI1
aI1
aI0
aI1
aI0
aI0
aI0
aI0
aI3
aI0
aI3
aI0
aI1
aI1
aI1
aI1
aI1
aI1
aI2
aI2
aI1
aI0
aI0
aI0
aI1
aI1
aI1
aI2
aI1
aI2
aI1
aI1
aI1
aI0
aI0
aI0
aI3
aI2
aI2
aI3
aI0
aI3
aI0
aI1
aI0
aI0
aI1
aI2
aI1
aI1
aI2
aI2
aI2
aI1
aI1
aI1
aI0
aI0
aI1
aI1
aI1
aI0
aI0
aI0
aI0
aI0
aI0
aI0
aI0
aI0
aI0
aI0
aI0
aI0
aI0
aI1
aI1
aI1
aI1
aI1
aI0
aI0
aI0
aI0
aI3
aI2
aI3
aI0
aI3
aI3
aI3
aI0
aI0
aI1
aI1
aI1
aI1
aI1
aI0
aI0
aI0
aI0
aI0
aI3
aI3
aI3
aI3
aI0
aI3
aI0
aI0
aI0
aI1
aI1
aI1
aI1
aI0
aI0
aI0
aI0
aI0
aI0
aI1
aI1
aI1
aI2
aI2
aI2
aI2
aI2
aI2
aI2
aI2
aI2
aI2
aI2
aI2
aI2
aI2
aI2
aI2
aI2
aI2
aI2
aI2
aI2
aI2
aI2
aI2
aI2
aI2
aI2
aI2
aI2
aI2
aI2
aI2
aI2
aI2
aI2
aI2
aI2
aI2
aI2
aI2
aI2
aI2
aI2
aI2
aI2
aI1
aI1
aI0
aI0
aI0
aI0
aI0
aI0
aI0
aI0
aI0
aI0
aI0
aI0
aI0
aI0
aI0
aI0
aI0
aI0
aI0
aI0
aI0
aI0
aI0
aI0
aI0
aI0
aI0
aI0
aI0
aI0
aI0
aI0
aI0
aI0
aI0
aI0
aI0
aI0
aI0
aI0
aI0
aI0
aI0
aI0
aI0
aI1
aI1
aI2
aI2
aI2
aI2
aI2
aI2
aI2
aI2
aI2
aI2
aI2
aI2
aI2
aI2
aI2
aI2
aI2
aI2
aI1
aI1
aI1
aI1
aI1
aI1
aI0
aI0
aI0
aI0
aI0
aI0
aI0
aI0
aI0
aI0
aI0
aI0
aI0
aI0
aI0
aI0
aI0
aI0
aI1
aI1
aI1
aI1
aI2
aI2
aI2
aI2
aI2
aI2
aI2
aI2
aI2
aI2
aI2
aI2
aI2
aI2
aI2
aI2
aI2
aI2
aI2
aI2
aI2
aI2
aI2
aI2
aI2
aI2
aI2
aI2
aI2
aI2
aI2
aI2
aI2
aI2
aI2
aI2
aI2
aI2
aI3
aI3
aI3
aI3
aI3
aI3
aI3
aI3
aI3
aI3
aI2
aI2
aI2
aI2
aI2
aI2
aI2
aI2
aI3
aI2
aI2
aI3
aI3
aI3
aI3
aI3
aI3
aI3
aI3
aI3
aI2
aI2
aI2
aI2
aI2
aI2
aI2
aI2
aI2
aI3
aI3
aI3
aI3
aI3
aI3
aI3
aI3
aI2
aI2
aI2
aI2
aI2
aI3
aI3
aI3
aI3
aI3
aI3
aI2
aI2
aI2
aI2
aI2
aI2
aI2
aI1
aI0
aI1
aI1
aI1
aI1
aI1
aI2
aI1
aI0
aI1
aI1
asg5
I495
sa(dp130
S'trail'
p131
(lp132
I3
aI3
aI2
aI3
aI3
aI2
aI2
aI1
aI2
aI1
aI2
aI1
aI2
aI1
aI2
aI1
aI2
aI2
aI2
aI3
aI3
aI3
aI3
aI3
aI3
aI3
aI3
aI2
aI0
aI3
aI0
aI0
aI0
aI0
aI3
aI1
aI0
aI0
aI0
aI3
asS'length'
p133
I40
sa(dp134
g3
(lp135
I1
aI0
aI0
aI1
aI1
aI1
aI0
aI1
aI0
aI1
aI1
aI1
aI1
aI0
aI0
aI0
aI0
aI0
aI0
aI1
aI1
aI1
aI1
aI1
aI1
aI1
aI1
aI1
aI1
aI1
aI1
aI1
aI1
aI1
aI1
aI1
aI0
aI0
aI0
aI0
aI1
aI1
aI0
aI3
aI3
aI0
aI0
aI0
aI0
aI0
aI0
aI0
aI0
aI0
aI0
aI0
aI0
aI0
aI1
aI2
aI1
aI1
aI1
aI0
aI0
aI1
aI1
aI1
aI0
aI0
aI0
aI0
aI0
aI0
aI0
aI0
aI0
aI0
aI0
aI0
aI0
aI0
aI1
aI1
aI1
aI1
aI1
aI0
aI0
aI0
aI0
aI3
aI3
aI3
aI2
aI3
aI0
aI3
aI0
aI0
aI1
aI1
aI1
aI1
aI1
aI0
aI0
aI0
aI0
aI0
aI3
aI3
aI3
aI3
aI0
aI3
aI0
aI0
aI0
aI1
aI1
aI1
aI1
aI0
aI0
aI0
aI0
aI0
aI0
aI1
aI1
aI1
aI2
aI2
aI2
aI2
aI2
aI2
aI2
aI2
aI2
aI2
aI2
aI2
aI2
aI2
aI2
aI2
aI2
aI2
aI2
aI2
aI2
aI2
aI2
aI2
aI2
aI2
aI2
aI2
aI2
aI2
aI2
aI2
aI2
aI2
aI2
aI2
aI2
aI2
aI2
aI2
aI2
aI2
aI2
aI2
aI2
aI1
aI1
aI0
aI0
aI0
aI0
aI0
aI0
aI0
aI0
aI0
aI0
aI0
aI0
aI0
aI0
aI0
aI0
aI0
aI0
aI0
aI0
aI0
aI0
aI0
aI0
aI0
aI0
aI0
aI0
aI0
aI0
aI0
aI0
aI0
aI0
aI0
aI0
aI0
aI0
aI0
aI0
aI0
aI0
aI0
aI0
aI0
aI1
aI1
aI1
aI1
aI1
aI1
aI1
aI1
aI1
aI1
aI2
aI2
aI2
aI2
aI2
aI2
aI2
aI2
aI2
aI2
aI2
aI2
aI2
aI2
aI2
aI2
aI2
aI2
aI2
aI2
aI2
aI2
aI2
aI2
aI2
aI2
aI2
aI2
aI2
aI2
aI2
aI2
aI2
aI2
aI2
aI2
aI2
aI2
aI3
aI3
aI3
aI3
aI3
aI3
aI3
aI3
aI2
aI2
aI2
aI2
aI2
aI2
aI2
aI2
aI3
aI2
aI2
aI3
aI3
aI3
aI3
aI3
aI3
aI3
aI3
aI3
aI2
aI2
aI2
aI2
aI2
aI2
aI2
aI2
aI2
aI3
aI3
aI3
aI3
aI3
aI3
aI3
aI3
aI2
aI2
aI2
aI2
aI2
aI3
aI3
aI3
aI2
aI2
aI2
aI2
aI2
aI2
aI1
aI1
aI1
aI1
aI1
aI1
asg5
I337
sa(dp136
g3
(lp137
I3
aI3
aI3
aI3
aI3
aI0
aI0
aI1
aI1
aI1
aI1
aI1
aI0
aI0
aI0
aI0
aI0
aI3
aI3
aI3
aI3
aI0
aI3
aI0
aI0
aI0
aI1
aI1
aI1
aI1
aI0
aI0
aI0
aI0
aI0
aI0
aI1
aI1
aI1
aI2
aI2
aI2
aI2
aI2
aI2
aI2
aI2
aI2
aI2
aI2
aI2
aI2
aI2
aI2
aI2
aI2
aI2
aI2
aI2
aI2
aI2
aI2
aI2
aI2
aI2
aI2
aI2
aI2
aI2
aI2
aI2
aI2
aI2
aI2
aI2
aI2
aI2
aI2
aI2
aI2
aI2
aI2
aI2
aI2
aI1
aI1
aI0
aI0
aI0
aI0
aI0
aI0
aI0
aI0
aI0
aI0
aI0
aI0
aI0
aI0
aI0
aI0
aI0
aI0
aI0
aI0
aI0
aI0
aI0
aI0
aI0
aI0
aI0
aI0
aI0
aI0
aI0
aI0
aI0
aI0
aI0
aI0
aI0
aI0
aI0
aI0
aI0
aI0
aI0
aI0
aI0
aI1
aI1
aI1
aI1
aI1
aI1
aI1
aI1
aI1
aI1
aI2
aI2
aI2
aI2
aI2
aI2
aI2
aI2
aI2
aI2
aI2
aI2
aI2
aI2
aI2
aI2
aI2
aI2
aI2
aI2
aI2
aI2
aI2
aI2
aI2
aI2
aI2
aI2
aI2
aI2
aI2
aI2
aI2
aI2
aI2
aI2
aI2
aI2
aI3
aI3
aI3
aI3
aI3
aI3
aI3
aI3
aI2
aI2
aI2
aI2
aI2
aI2
aI2
aI2
aI3
aI2
aI2
aI3
aI3
aI3
aI3
aI3
aI3
aI3
aI3
aI3
aI2
aI2
aI2
aI2
aI2
aI2
aI2
aI2
aI2
aI3
aI3
aI3
aI3
aI3
aI3
aI3
aI3
aI2
aI2
aI2
aI2
aI2
aI3
aI3
aI3
aI2
aI2
aI2
aI2
aI2
aI2
aI2
aI1
aI1
aI1
aI1
aI0
aI1
aI1
asg5
I246
sa(dp138
g3
(lp139
I3
aI2
aI3
aI0
aI3
aI2
aI3
aI3
aI0
aI3
aI0
aI0
aI0
aI0
aI0
aI0
aI1
aI1
aI1
aI0
aI0
aI0
aI0
aI0
aI1
aI1
aI1
aI1
aI1
aI1
aI1
aI1
aI0
aI0
aI0
aI0
aI0
aI0
aI0
aI0
aI0
aI1
aI1
aI1
aI1
aI1
aI1
aI1
aI1
aI1
aI0
aI0
aI1
aI0
aI0
aI0
aI0
aI0
aI0
aI0
aI0
aI1
aI1
aI1
aI1
aI1
aI1
aI1
aI1
aI1
aI1
aI0
aI0
aI0
aI0
aI0
aI0
aI0
aI0
aI0
aI0
aI0
aI0
aI0
aI0
aI0
aI0
aI0
aI0
aI0
aI0
aI0
aI0
aI0
aI0
aI0
aI0
aI0
aI0
aI0
aI0
aI0
aI0
aI0
aI0
aI0
aI0
aI0
aI0
aI3
aI3
aI3
aI3
aI2
aI2
aI2
aI2
aI2
aI2
aI2
aI2
aI2
aI2
aI2
aI2
aI2
aI2
aI2
aI2
aI2
aI2
aI3
aI3
aI3
aI3
aI3
aI3
aI0
aI0
aI0
aI0
aI0
aI0
aI0
aI0
aI0
aI0
aI0
aI0
aI0
aI0
aI0
aI0
aI0
aI0
aI3
aI3
aI2
aI2
aI2
aI2
aI2
aI2
aI2
aI2
aI2
aI2
aI2
aI2
aI2
aI2
aI2
aI2
aI2
aI2
aI2
aI2
aI2
aI2
aI2
aI2
aI2
aI2
aI2
aI2
aI2
aI2
aI2
aI2
aI2
aI2
aI2
aI2
aI2
aI2
aI2
aI2
aI2
aI2
aI2
aI2
aI2
aI3
aI3
aI0
aI0
aI0
aI0
aI0
aI0
aI0
aI0
aI0
aI0
aI0
aI0
aI0
aI0
aI0
aI0
aI0
aI0
aI0
aI0
aI0
aI0
aI0
aI0
aI0
aI0
aI0
aI0
aI0
aI0
aI0
aI0
aI0
aI0
aI0
aI0
aI0
aI0
aI0
aI0
aI0
aI0
aI0
aI0
aI0
aI3
aI3
aI3
aI2
aI2
aI2
aI2
aI2
aI2
aI3
aI3
aI3
aI3
aI2
aI2
aI2
aI1
aI2
aI1
aI1
aI1
aI1
aI2
aI2
aI2
aI2
aI2
aI3
aI3
aI3
aI3
aI3
aI2
aI2
aI2
aI1
aI0
aI1
aI1
aI1
aI2
aI1
aI2
aI2
aI2
aI3
aI3
aI3
aI3
aI3
aI2
aI2
aI2
aI2
aI2
aI2
aI2
aI2
aI2
aI2
aI2
aI2
aI2
aI2
aI3
aI3
aI3
aI2
aI2
aI3
aI3
aI0
aI0
aI3
aI0
aI1
aI0
aI3
aI3
aI3
aI3
aI2
aI1
aI1
aI2
aI3
aI3
aI2
aI3
aI2
asg5
I339
sa(dp140
g3
(lp141
I3
aI3
aI3
aI2
aI3
aI2
aI1
aI2
aI3
aI2
aI3
aI0
aI3
aI2
aI2
aI1
aI2
aI2
aI2
aI2
aI3
aI2
aI2
aI2
aI2
aI2
aI2
aI2
aI2
aI2
aI3
aI3
aI3
aI3
aI3
aI2
aI2
aI1
aI1
aI1
aI2
aI1
aI1
aI2
aI2
aI3
aI3
aI3
aI2
aI3
aI3
aI0
aI3
aI0
aI3
aI3
aI2
aI2
aI2
aI1
aI2
aI1
aI1
aI1
aI1
aI1
aI1
aI1
aI1
aI1
aI1
aI1
aI2
aI2
aI2
aI2
aI3
aI3
aI0
aI3
aI0
aI3
aI3
aI2
aI3
aI2
aI2
aI2
aI1
aI1
aI1
aI1
aI2
aI2
aI3
aI3
aI3
aI3
aI3
aI3
aI3
aI0
aI3
aI3
aI2
aI2
aI2
aI2
aI2
aI2
aI2
aI2
aI1
aI2
aI2
aI2
aI2
aI1
aI2
aI2
aI2
aI1
aI1
aI1
aI2
aI2
aI1
aI2
aI1
aI1
aI1
aI1
aI0
aI1
aI0
aI0
aI0
aI0
aI0
aI1
aI1
aI0
aI0
aI0
aI1
aI0
aI1
aI1
aI0
aI0
aI0
aI3
aI0
aI0
aI0
aI0
aI0
aI0
aI0
aI1
aI1
aI1
aI0
aI0
aI1
aI1
aI0
aI0
aI1
aI0
aI0
aI1
aI2
aI1
aI0
aI1
aI0
aI3
aI0
aI1
aI1
aI0
aI0
aI0
aI0
aI1
aI1
aI1
aI2
aI2
aI1
aI1
aI1
aI0
aI1
aI2
aI1
aI1
aI1
aI1
aI1
aI1
aI2
aI3
aI2
aI1
aI1
aI2
aI3
aI3
aI2
aI1
aI1
aI1
aI0
aI0
aI1
aI1
aI1
aI0
aI1
aI0
aI3
aI3
aI2
aI3
aI3
aI0
aI3
aI2
aI1
aI1
aI0
aI0
aI3
aI3
aI0
aI1
aI0
aI1
aI2
aI1
aI1
aI1
aI1
aI1
aI0
aI3
aI3
aI3
aI0
aI1
aI1
aI1
aI1
aI2
aI2
aI2
aI2
aI1
aI1
aI0
aI0
aI1
aI1
aI1
aI0
aI0
aI0
aI0
aI0
aI0
aI0
aI0
aI0
aI0
aI0
aI0
aI0
aI0
aI1
aI1
aI1
aI1
aI1
aI0
aI0
aI0
aI3
aI3
aI3
aI0
aI1
aI1
aI1
aI2
aI3
aI1
aI0
aI3
aI3
aI2
aI1
aI0
aI3
aI2
aI1
aI3
aI3
aI3
aI0
aI3
aI0
aI0
aI1
aI1
aI1
aI1
aI1
aI0
aI0
aI0
aI0
aI0
aI3
aI3
aI3
aI3
aI0
aI3
aI0
aI0
aI0
aI1
aI1
aI1
aI1
aI0
aI0
aI0
aI0
aI0
aI0
aI1
aI1
aI1
aI2
aI2
aI2
aI2
aI2
aI2
aI2
aI2
aI2
aI2
aI2
aI2
aI2
aI2
aI2
aI2
aI2
aI2
aI2
aI2
aI2
aI2
aI2
aI2
aI2
aI2
aI2
aI2
aI2
aI2
aI2
aI2
aI2
aI2
aI2
aI2
aI2
aI2
aI2
aI2
aI2
aI2
aI2
aI2
aI2
aI1
aI1
aI0
aI0
aI0
aI0
aI0
aI0
aI0
aI0
aI0
aI0
aI0
aI0
aI0
aI0
aI0
aI0
aI0
aI0
aI0
aI0
aI0
aI0
aI0
aI0
aI0
aI0
aI0
aI0
aI0
aI0
aI0
aI0
aI0
aI0
aI0
aI0
aI0
aI0
aI0
aI0
aI0
aI0
aI0
aI0
aI0
aI1
aI1
aI1
aI1
aI1
aI1
aI1
aI1
aI1
aI1
aI2
aI2
aI2
aI2
aI2
aI2
aI2
aI2
aI2
aI2
aI2
aI2
aI2
aI2
aI2
aI2
aI2
aI2
aI2
aI2
aI2
aI2
aI2
aI2
aI2
aI2
aI2
aI2
aI2
aI2
aI2
aI2
aI2
aI2
aI2
aI2
aI2
aI2
aI3
aI3
aI3
aI3
aI3
aI3
aI3
aI3
aI2
aI2
aI2
aI2
aI2
aI2
aI2
aI2
aI3
aI2
aI2
aI3
aI3
aI3
aI3
aI3
aI3
aI3
aI3
aI3
aI2
aI2
aI2
aI2
aI2
aI2
aI2
aI2
aI2
aI3
aI3
aI3
aI3
aI3
aI3
aI3
aI3
aI2
aI2
aI2
aI2
aI2
aI3
aI3
aI3
aI3
aI3
aI3
aI3
aI2
aI3
aI2
aI1
aI1
aI2
aI2
aI2
aI2
aI2
aI1
aI1
aI1
aI1
aI1
aI1
aI1
aI1
aI1
aI0
asg5
I563
sa(dp142
g3
(lp143
I3
aI3
aI3
aI3
aI3
aI3
aI0
aI0
aI0
aI0
aI0
aI0
aI1
aI1
aI1
aI0
aI0
aI0
aI0
aI0
aI1
aI1
aI1
aI1
aI1
aI1
aI1
aI1
aI0
aI0
aI0
aI0
aI0
aI0
aI0
aI0
aI0
aI1
aI1
aI1
aI1
aI1
aI1
aI1
aI1
aI1
aI0
aI0
aI1
aI0
aI0
aI0
aI0
aI0
aI0
aI0
aI0
aI1
aI1
aI1
aI1
aI1
aI1
aI1
aI1
aI1
aI1
aI0
aI0
aI0
aI0
aI0
aI0
aI0
aI0
aI0
aI0
aI0
aI0
aI0
aI0
aI0
aI0
aI0
aI0
aI0
aI0
aI0
aI0
aI0
aI0
aI0
aI0
aI0
aI0
aI0
aI0
aI0
aI0
aI0
aI0
aI0
aI0
aI0
aI0
aI3
aI3
aI3
aI3
aI2
aI2
aI2
aI2
aI2
aI2
aI2
aI2
aI2
aI2
aI2
aI2
aI2
aI2
aI2
aI2
aI2
aI2
aI3
aI3
aI3
aI3
aI3
aI3
aI0
aI0
aI0
aI0
aI0
aI0
aI0
aI0
aI0
aI0
aI0
aI0
aI0
aI0
aI0
aI0
aI0
aI0
aI3
aI3
aI2
aI2
aI2
aI2
aI2
aI2
aI2
aI2
aI2
aI2
aI2
aI2
aI2
aI2
aI2
aI2
aI2
aI2
aI2
aI2
aI2
aI2
aI2
aI2
aI2
aI2
aI2
aI2
aI2
aI2
aI2
aI2
aI2
aI2
aI2
aI2
aI2
aI2
aI2
aI2
aI2
aI2
aI2
aI2
aI2
aI3
aI3
aI0
aI0
aI0
aI0
aI0
aI0
aI0
aI0
aI0
aI0
aI0
aI0
aI0
aI0
aI0
aI0
aI0
aI0
aI0
aI0
aI0
aI0
aI0
aI0
aI0
aI0
aI0
aI0
aI0
aI0
aI0
aI0
aI0
aI0
aI0
aI0
aI0
aI0
aI0
aI0
aI0
aI0
aI0
aI0
aI0
aI3
aI3
aI3
aI2
aI2
aI2
aI2
aI2
aI2
aI3
aI3
aI3
aI3
aI2
aI2
aI2
aI1
aI2
aI1
aI1
aI1
aI1
aI2
aI2
aI2
aI2
aI2
aI3
aI3
aI3
aI3
aI3
aI2
aI2
aI1
aI2
aI3
aI0
aI2
aI1
aI1
aI0
aI1
aI2
aI1
aI0
aI1
aI2
aI2
aI2
aI2
aI3
aI3
aI3
aI3
aI3
aI2
aI2
aI2
aI2
aI2
aI2
aI2
aI2
aI2
aI2
aI2
aI2
aI2
aI2
aI3
aI3
aI3
aI2
aI2
aI3
aI3
aI0
aI3
aI3
aI3
aI2
aI3
aI0
aI0
aI0
aI1
aI0
aI3
aI3
aI3
aI2
aI3
aI2
aI2
aI3
aI3
aI3
aI2
aI3
aI3
aI3
aI3
aI2
aI3
aI2
aI2
aI1
aI2
aI2
aI2
aI3
aI3
aI2
aI3
aI3
aI0
aI0
aI3
asg5
I364
sa(dp144
g3
(lp145
I0
aI1
aI0
aI0
aI3
aI0
aI0
aI0
aI0
aI3
aI0
aI0
aI0
aI0
aI0
aI0
aI0
aI1
aI1
aI0
aI0
aI0
aI1
aI0
aI1
aI1
aI0
aI0
aI0
aI3
aI0
aI0
aI0
aI0
aI0
aI0
aI0
aI1
aI1
aI1
aI0
aI0
aI1
aI1
aI0
aI0
aI0
aI0
aI1
aI1
aI1
aI1
aI1
aI1
aI0
aI3
aI0
aI3
aI0
aI0
aI1
aI0
aI0
aI0
aI0
aI1
aI2
aI2
aI1
aI0
aI0
aI1
aI2
aI1
aI1
aI1
aI2
aI2
aI2
aI1
aI2
aI1
aI0
aI1
aI1
aI1
aI1
aI0
aI0
aI1
aI0
aI1
aI1
aI1
aI1
aI2
aI3
aI2
aI1
aI1
aI0
aI0
aI0
aI1
aI1
aI1
aI1
aI2
aI2
aI2
aI2
aI1
aI1
aI0
aI0
aI1
aI1
aI1
aI0
aI0
aI0
aI0
aI0
aI0
aI0
aI0
aI0
aI0
aI0
aI0
aI0
aI0
aI1
aI1
aI1
aI1
aI1
aI0
aI0
aI0
aI3
aI0
aI3
aI3
aI2
aI3
aI3
aI0
aI0
aI0
aI1
aI1
aI1
aI1
aI1
aI0
aI0
aI0
aI0
aI0
aI0
aI3
aI2
aI3
aI3
aI3
aI0
aI3
aI0
aI0
aI0
aI1
aI1
aI1
aI1
aI0
aI0
aI0
aI0
aI0
aI0
aI1
aI1
aI1
aI2
aI2
aI2
aI2
aI2
aI2
aI2
aI2
aI2
aI2
aI2
aI2
aI2
aI2
aI2
aI2
aI2
aI2
aI2
aI2
aI2
aI2
aI2
aI2
aI2
aI2
aI2
aI2
aI2
aI2
aI2
aI2
aI2
aI2
aI2
aI2
aI2
aI2
aI2
aI2
aI2
aI2
aI2
aI2
aI2
aI1
aI1
aI0
aI0
aI0
aI0
aI0
aI0
aI0
aI0
aI0
aI0
aI0
aI0
aI0
aI0
aI0
aI0
aI0
aI0
aI0
aI0
aI0
aI0
aI0
aI0
aI0
aI0
aI0
aI0
aI0
aI0
aI0
aI0
aI0
aI0
aI0
aI0
aI0
aI0
aI0
aI0
aI0
aI0
aI0
aI0
aI0
aI1
aI1
aI1
aI1
aI1
aI1
aI1
aI1
aI1
aI1
aI2
aI2
aI2
aI2
aI2
aI2
aI2
aI2
aI2
aI2
aI2
aI2
aI2
aI2
aI2
aI2
aI2
aI2
aI2
aI2
aI2
aI2
aI2
aI2
aI2
aI2
aI2
aI2
aI2
aI2
aI2
aI2
aI2
aI2
aI2
aI2
aI2
aI2
aI3
aI3
aI3
aI3
aI3
aI3
aI3
aI3
aI0
aI0
aI1
aI1
aI1
aI1
aI1
aI1
aI0
aI0
aI3
aI3
aI3
aI3
aI3
aI3
aI2
aI2
aI2
aI2
aI2
aI2
aI2
aI2
aI2
aI2
aI2
aI2
aI3
aI2
aI2
aI3
aI3
aI3
aI3
aI3
aI3
aI3
aI3
aI3
aI2
aI2
aI2
aI2
aI2
aI2
aI2
aI2
aI2
aI3
aI3
aI3
aI3
aI3
aI3
aI3
aI3
aI2
aI2
aI2
aI2
aI2
aI3
aI3
aI3
aI3
aI3
aI3
aI3
aI2
aI1
aI2
aI2
aI2
aI2
aI2
aI1
aI1
aI1
aI1
aI1
aI2
aI2
aI2
aI1
aI2
aI1
aI2
aI1
aI2
aI1
aI2
aI1
aI2
aI2
aI2
aI1
aI1
aI1
aI1
aI1
aI1
aI1
aI1
aI0
aI0
aI0
aI0
aI0
aI0
aI0
aI0
aI0
aI3
aI3
aI3
aI0
aI3
aI3
aI2
aI2
aI2
aI3
aI0
aI3
aI2
aI2
aI1
aI1
aI1
aI0
aI0
aI0
aI2
aI3
aI1
aI2
aI3
aI0
aI2
aI3
aI2
aI2
aI2
aI2
aI1
aI1
aI0
aI0
aI3
aI2
aI0
aI0
aI0
aI0
aI0
aI2
aI1
aI3
aI0
aI1
aI0
aI0
aI3
aI3
aI0
aI3
aI2
aI3
aI0
aI3
aI2
aI2
asg5
I505
sa(dp146
g3
(lp147
I3
aI3
aI3
aI3
aI3
aI3
aI0
aI0
aI0
aI0
aI0
aI0
aI1
aI1
aI1
aI0
aI0
aI0
aI0
aI0
aI1
aI1
aI1
aI1
aI1
aI1
aI1
aI1
aI0
aI0
aI0
aI0
aI0
aI0
aI0
aI0
aI0
asg5
I37
sa(dp148
g3
(lp149
I2
aI2
aI1
aI2
aI2
aI3
aI2
aI1
aI1
aI1
aI1
aI1
aI1
aI0
aI0
aI0
aI0
aI1
aI1
aI2
aI1
aI2
aI1
aI0
aI1
aI2
aI2
aI2
aI1
aI1
aI1
aI0
aI0
aI3
aI0
aI1
aI1
aI2
aI2
aI2
aI1
aI1
aI1
aI0
aI0
aI1
aI1
aI1
aI0
aI0
aI0
aI0
aI0
aI0
aI0
aI0
aI0
aI0
aI0
aI0
aI0
aI0
aI1
aI1
aI1
aI1
aI1
aI0
aI0
aI0
aI3
aI0
aI3
aI3
aI3
aI3
aI0
aI0
aI1
aI1
aI1
aI1
aI1
aI0
aI0
aI0
aI0
aI0
aI3
aI3
aI3
aI0
aI3
aI3
aI0
aI0
aI0
aI1
aI1
aI1
aI1
aI0
aI0
aI0
aI0
aI0
aI0
aI1
aI1
aI1
aI2
aI2
aI2
aI2
aI2
aI2
aI2
aI2
aI2
aI2
aI2
aI2
aI2
aI2
aI2
aI2
aI2
aI2
aI2
aI2
aI2
aI2
aI2
aI2
aI2
aI2
aI2
aI2
aI2
aI2
aI2
aI2
aI2
aI2
aI2
aI2
aI2
aI2
aI2
aI2
aI2
aI2
aI2
aI2
aI2
aI1
aI1
aI0
aI0
aI0
aI0
aI0
aI0
aI0
aI0
aI0
aI0
aI0
aI0
aI0
aI0
aI0
aI0
aI0
aI0
aI0
aI0
aI0
aI0
aI0
aI0
aI0
aI0
aI0
aI0
aI0
aI0
aI0
aI0
aI0
aI0
aI0
aI0
aI0
aI0
aI0
aI0
aI0
aI0
aI0
aI0
aI0
aI1
aI1
aI1
aI1
aI1
aI1
aI1
aI1
aI1
aI1
aI2
aI2
aI2
aI2
aI2
aI2
aI2
aI2
aI2
aI2
aI2
aI2
aI2
aI2
aI2
aI2
aI2
aI2
aI2
aI2
aI2
aI2
aI2
aI2
aI2
aI2
aI2
aI2
aI2
aI2
aI2
aI2
aI2
aI2
aI2
aI2
aI2
aI2
aI3
aI3
aI3
aI3
aI3
aI3
aI3
aI3
aI2
aI2
aI2
aI2
aI2
aI2
aI2
aI2
aI3
aI2
aI2
aI3
aI3
aI3
aI3
aI3
aI3
aI3
aI3
aI3
aI2
aI2
aI2
aI2
aI2
aI2
aI2
aI2
aI2
aI3
aI3
aI3
aI3
aI3
aI3
aI3
aI3
aI2
aI2
aI2
aI2
aI2
aI3
aI3
aI3
aI2
aI2
aI2
aI2
aI2
aI2
aI2
aI1
aI0
aI1
aI2
aI1
aI0
aI1
aI2
aI1
aI1
aI0
asg5
I321
sa(dp150
g3
(lp151
I0
aI0
aI3
aI2
aI2
aI2
aI2
aI2
aI2
aI1
aI2
aI3
aI2
aI2
aI2
aI2
aI1
aI2
aI2
aI2
aI2
aI2
aI2
aI2
aI2
aI2
aI3
aI2
aI3
aI3
aI3
aI3
aI3
aI3
aI3
aI3
aI3
aI3
aI3
aI3
aI3
aI3
aI2
aI2
aI2
aI2
aI2
aI2
aI2
aI2
aI3
aI2
aI2
aI3
aI3
aI3
aI3
aI3
aI3
aI3
aI3
aI3
aI2
aI2
aI2
aI2
aI2
aI2
aI2
aI2
aI2
aI3
aI3
aI3
aI3
aI3
aI3
aI3
aI3
aI2
aI2
aI2
aI2
aI2
aI3
aI3
aI3
aI2
aI2
aI2
aI2
aI2
aI2
aI1
aI1
aI1
aI1
aI2
aI1
aI0
aI1
asg5
I101
sa(dp152
g3
(lp153
I1
aI1
aI1
aI1
aI1
aI1
aI1
aI1
aI1
aI1
aI1
aI1
aI2
aI2
aI2
aI2
aI2
aI2
aI2
aI2
aI2
aI2
aI2
aI2
aI2
aI2
aI2
aI2
aI2
aI2
aI2
aI2
aI2
aI2
aI2
aI2
aI2
aI2
aI2
aI3
aI3
aI3
aI3
aI3
aI3
aI3
aI3
aI3
aI3
aI3
aI3
aI3
aI2
aI2
aI2
aI3
aI3
aI0
aI0
aI0
aI0
aI0
aI0
aI0
aI0
aI0
aI0
aI0
aI0
aI0
aI0
aI0
aI0
aI0
aI0
aI0
aI0
aI3
aI3
aI3
aI3
aI3
aI3
aI3
aI3
aI3
aI2
aI2
aI1
aI1
aI1
aI1
aI2
aI2
aI2
aI3
aI2
aI1
aI2
aI2
aI3
aI0
aI3
aI0
aI0
aI3
aI2
aI2
aI2
aI1
aI2
aI3
aI2
aI1
aI2
aI1
aI2
aI2
aI3
aI3
aI2
aI1
aI1
aI2
aI3
aI2
aI1
aI2
aI1
aI0
aI1
aI1
aI2
aI2
aI3
aI3
aI3
aI3
aI3
aI2
aI2
aI2
aI2
aI2
aI3
aI3
aI3
aI3
aI3
aI2
aI2
aI1
aI1
aI1
aI2
aI1
aI1
aI2
aI2
aI3
aI3
aI3
aI2
aI3
aI3
aI0
aI3
aI0
aI3
aI3
aI2
aI2
aI2
aI1
aI2
aI1
aI1
aI1
aI1
aI1
aI1
aI1
aI1
aI1
aI1
aI1
aI2
aI2
aI2
aI2
aI3
aI3
aI0
aI3
aI0
aI3
aI3
aI2
aI3
aI2
aI2
aI2
aI1
aI1
aI1
aI1
aI2
aI2
aI3
aI3
aI3
aI3
aI3
aI3
aI3
aI0
aI3
aI3
aI2
aI2
aI2
aI2
aI2
aI2
aI2
aI2
aI1
aI2
aI2
aI2
aI2
aI1
aI2
aI2
aI2
aI1
aI1
aI1
aI2
aI2
aI1
aI2
aI1
aI1
aI1
aI1
aI0
aI1
aI0
aI0
aI0
aI0
aI0
aI1
aI1
aI0
aI0
aI0
aI1
aI0
aI1
aI1
aI0
aI0
aI0
aI3
aI0
aI0
aI0
aI0
aI0
aI0
aI0
aI1
aI1
aI1
aI0
aI0
aI1
aI1
aI0
aI0
aI0
aI0
aI0
aI1
aI2
aI2
aI2
aI2
aI1
aI1
aI1
aI0
aI2
aI1
aI3
aI1
aI3
aI1
aI3
aI1
aI1
aI1
aI3
aI3
aI3
aI1
aI1
aI1
aI0
aI1
aI0
aI3
aI1
aI1
aI3
aI0
aI0
aI1
aI0
aI1
aI1
aI1
aI0
aI3
aI0
aI0
aI1
aI0
aI0
aI2
aI0
aI2
aI2
aI1
aI2
aI1
aI1
aI1
aI1
aI1
aI1
aI0
aI1
aI1
aI0
aI3
aI3
aI3
aI2
aI3
aI0
aI0
aI0
aI1
aI2
aI1
aI1
aI1
aI1
aI1
aI2
aI2
aI1
aI1
aI1
aI1
aI2
aI1
aI1
aI0
aI0
aI1
aI1
aI1
aI0
aI0
aI0
aI0
aI0
aI0
aI0
aI0
aI0
aI0
aI0
aI0
aI0
aI0
aI1
aI1
aI1
aI1
aI1
aI0
aI0
aI0
aI3
aI3
aI0
aI1
aI1
aI3
aI3
aI3
aI2
aI3
aI3
aI0
aI0
aI0
aI1
aI1
aI1
aI1
aI1
aI0
aI0
aI0
aI0
aI0
aI0
aI3
aI3
aI3
aI3
aI2
aI1
aI1
aI1
aI1
aI3
aI0
aI2
aI1
aI3
aI3
aI3
aI0
aI1
aI3
aI3
aI3
aI0
aI0
aI0
aI1
aI1
aI1
aI1
aI0
aI0
aI0
aI0
aI0
aI0
aI1
aI1
aI1
aI2
aI2
aI2
aI2
aI2
aI2
aI2
aI2
aI2
aI2
aI2
aI2
aI2
aI2
aI2
aI2
aI2
aI2
aI2
aI2
aI2
aI2
aI2
aI2
aI2
aI2
aI2
aI2
aI2
aI2
aI2
aI2
aI2
aI2
aI2
aI2
aI2
aI2
aI2
aI2
aI2
aI2
aI2
aI2
aI2
aI1
aI1
aI0
aI0
aI0
aI0
aI0
aI0
aI0
aI0
aI0
aI0
aI0
aI0
aI0
aI0
aI0
aI0
aI0
aI0
aI0
aI0
aI0
aI0
aI0
aI0
aI0
aI0
aI0
aI0
aI0
aI0
aI0
aI0
aI0
aI0
aI0
aI0
aI0
aI0
aI0
aI0
aI0
aI0
aI0
aI0
aI0
aI1
aI1
aI1
aI1
aI1
aI1
aI1
aI1
aI1
aI1
aI2
aI2
aI2
aI2
aI2
aI2
aI2
aI2
aI2
aI2
aI2
aI2
aI2
aI2
aI2
aI2
aI2
aI2
aI2
aI2
aI2
aI2
aI2
aI2
aI2
aI2
aI2
aI2
aI2
aI2
aI2
aI2
aI2
aI2
aI2
aI2
aI2
aI2
aI3
aI3
aI3
aI3
aI3
aI3
aI3
aI3
aI2
aI2
aI2
aI2
aI2
aI2
aI2
aI2
aI3
aI2
aI2
aI3
aI3
aI3
aI3
aI3
aI3
aI3
aI3
aI3
aI2
aI2
aI2
aI2
aI2
aI2
aI2
aI2
aI2
aI3
aI3
aI3
aI3
aI3
aI3
aI3
aI3
aI2
aI2
aI2
aI2
aI2
aI3
aI3
aI3
aI2
aI2
aI2
aI2
aI2
aI2
aI3
aI3
aI3
aI2
aI1
aI1
aI1
aI1
aI0
aI1
aI2
aI1
aI1
aI1
aI1
aI0
asg5
I675
sa(dp154
g3
(lp155
I0
aI0
aI0
aI0
aI0
aI0
aI0
aI0
aI0
aI0
aI0
aI0
aI0
aI0
aI0
aI0
aI0
aI0
aI0
aI0
aI0
aI0
aI0
aI0
aI0
aI1
aI1
aI1
aI1
aI1
aI1
aI1
aI0
aI1
aI2
aI1
aI1
aI1
aI1
aI1
aI1
aI1
aI1
aI1
aI1
aI1
aI1
aI1
aI1
aI0
aI0
aI1
aI0
aI0
aI0
aI0
aI0
aI0
aI1
aI1
aI1
aI0
aI1
aI1
aI0
aI0
aI3
aI3
aI3
aI3
aI3
aI0
aI0
aI0
aI1
aI1
aI1
aI1
aI1
aI1
aI0
aI0
aI0
aI0
aI0
aI0
aI0
aI0
aI0
aI0
aI0
aI0
aI0
aI0
aI0
aI0
aI3
aI0
aI3
aI3
aI2
aI2
aI2
aI2
aI2
aI2
aI2
aI2
aI2
aI2
aI2
aI2
aI2
aI2
aI2
aI3
aI3
aI0
aI0
aI0
aI0
aI0
aI0
aI0
aI0
aI0
aI0
aI0
aI0
aI0
aI0
aI0
aI0
aI0
aI1
aI1
aI1
aI1
aI1
aI0
aI0
aI0
aI0
aI3
aI2
aI3
aI0
aI3
aI2
aI3
aI3
aI0
aI0
aI0
aI1
aI1
aI1
aI1
aI1
aI0
aI0
aI0
aI0
aI0
aI3
aI3
aI0
aI3
aI3
aI2
aI3
aI0
aI0
aI0
aI0
aI1
aI1
aI1
aI1
aI0
aI0
aI0
aI0
aI0
aI0
aI1
aI1
aI1
aI2
aI2
aI2
aI2
aI2
aI2
aI2
aI2
aI2
aI2
aI2
aI2
aI2
aI2
aI2
aI2
aI2
aI2
aI2
aI2
aI2
aI2
aI2
aI2
aI2
aI2
aI2
aI2
aI2
aI2
aI2
aI2
aI2
aI2
aI2
aI2
aI2
aI2
aI2
aI2
aI2
aI2
aI2
aI2
aI2
aI1
aI1
aI0
aI0
aI0
aI0
aI0
aI0
aI0
aI0
aI0
aI0
aI0
aI0
aI0
aI0
aI0
aI0
aI0
aI0
aI0
aI0
aI0
aI0
aI0
aI0
aI0
aI0
aI0
aI0
aI0
aI0
aI0
aI0
aI0
aI0
aI0
aI0
aI0
aI0
aI0
aI0
aI0
aI0
aI0
aI0
aI0
aI1
aI1
aI1
aI1
aI1
aI1
aI1
aI1
aI1
aI1
aI2
aI2
aI2
aI2
aI2
aI2
aI2
aI2
aI2
aI2
aI2
aI2
aI2
aI2
aI2
aI2
aI2
aI2
aI2
aI2
aI2
aI2
aI2
aI2
aI2
aI2
aI2
aI2
aI2
aI2
aI2
aI2
aI2
aI2
aI2
aI2
aI2
aI2
aI3
aI3
aI0
aI0
aI3
aI3
aI3
aI3
aI3
aI3
aI2
aI2
aI2
aI2
aI2
aI2
aI2
aI2
aI2
aI2
aI3
aI2
aI2
aI3
aI3
aI3
aI3
aI3
aI3
aI3
aI3
aI3
aI2
aI2
aI2
aI2
aI2
aI2
aI2
aI2
aI2
aI3
aI3
aI3
aI3
aI3
aI3
aI3
aI3
aI2
aI2
aI2
aI2
aI2
aI3
aI3
aI3
aI2
aI2
aI2
aI2
aI2
aI2
aI2
aI1
aI1
aI0
aI3
aI1
aI0
aI0
aI1
aI0
aI1
aI0
aI1
aI0
aI1
aI0
aI1
aI0
aI0
aI0
aI1
aI1
aI1
aI1
aI1
aI1
aI2
aI2
aI2
aI2
aI2
aI2
aI2
aI2
aI2
aI2
aI2
aI2
aI2
aI2
aI2
aI2
aI2
aI2
aI2
aI3
aI3
aI3
aI3
aI3
aI3
aI0
aI0
aI0
aI3
aI0
aI3
aI0
aI3
aI0
aI3
aI0
aI3
aI0
aI0
aI1
aI0
aI1
aI1
aI1
asg5
I461
saa(lp156
g6
ag18
ag55
ag86
ag97
ag128
a(dp157
g3
(lp158
sg5
I0
sa(dp159
g3
(lp160
I2
aI1
aI2
aI1
aI1
aI0
aI0
aI1
aI2
aI1
aI2
aI2
aI1
aI1
aI1
aI1
aI2
aI2
aI3
aI3
aI3
aI3
aI3
aI3
aI3
aI0
aI3
aI3
aI2
aI2
aI2
aI2
aI2
aI2
aI2
aI2
aI1
aI2
aI2
aI2
aI2
aI1
aI2
aI2
aI2
aI1
aI1
aI1
aI2
aI2
aI1
aI2
aI1
aI1
aI1
aI1
aI1
aI0
aI0
aI0
aI0
aI0
aI0
aI1
aI1
aI0
aI0
aI0
aI1
aI0
aI1
aI1
aI0
aI0
aI0
aI3
aI0
aI0
aI0
aI0
aI0
aI0
aI0
aI1
aI1
aI1
aI0
aI0
aI1
aI1
aI0
aI1
aI1
aI1
aI1
aI1
aI1
aI0
aI0
aI1
aI2
aI2
aI1
aI0
aI1
aI1
aI2
aI1
aI0
aI1
aI1
aI0
aI3
aI0
aI1
aI0
aI3
aI0
aI1
aI0
aI0
aI1
aI1
aI1
aI1
aI2
aI2
aI1
aI0
aI0
aI1
aI2
aI1
aI1
aI0
aI1
aI1
aI1
aI0
aI1
aI1
aI0
aI3
aI0
aI0
aI1
aI2
aI1
aI2
aI2
aI2
aI1
aI1
aI0
aI0
aI1
aI1
aI1
aI0
aI0
aI0
aI0
aI0
aI0
aI0
aI0
aI0
aI0
aI0
aI0
aI0
aI0
aI1
aI1
aI1
aI1
aI1
aI0
aI0
aI0
aI3
aI0
aI3
aI2
aI3
aI0
aI3
aI3
aI0
aI0
aI1
aI1
aI1
aI1
aI1
aI0
aI0
aI0
aI0
aI0
aI3
aI3
aI3
aI3
aI0
aI3
aI0
aI0
aI0
aI1
aI1
aI1
aI1
aI0
aI0
aI0
aI0
aI0
aI0
aI1
aI1
aI1
aI2
aI2
aI2
aI2
aI2
aI2
aI2
aI2
aI2
aI2
aI2
aI2
aI2
aI2
aI2
aI2
aI2
aI2
aI2
aI2
aI2
aI2
aI2
aI2
aI2
aI2
aI2
aI2
aI2
aI2
aI2
aI2
aI2
aI2
aI2
aI2
aI2
aI2
aI2
aI2
aI2
aI2
aI2
aI2
aI2
aI1
aI1
aI0
aI0
aI0
aI0
aI0
aI0
aI0
aI0
aI0
aI0
aI0
aI0
aI0
aI0
aI0
aI0
aI0
aI0
aI0
aI0
aI0
aI0
aI0
aI0
aI0
aI0
aI0
aI0
aI0
aI0
aI0
aI0
aI0
aI0
aI0
aI0
aI0
aI0
aI0
aI0
aI0
aI0
aI0
aI0
aI0
aI1
aI1
aI2
aI2
aI2
aI2
aI2
aI2
aI2
aI2
aI2
aI2
aI2
aI2
aI2
aI2
aI2
aI2
aI2
aI2
aI1
aI1
aI1
aI1
aI1
aI1
aI0
aI0
aI0
aI0
aI0
aI0
aI0
aI0
aI0
aI0
aI0
aI0
aI0
aI0
aI0
aI0
aI0
aI0
aI1
aI1
aI1
aI1
aI2
aI2
aI2
aI2
aI2
aI2
aI2
aI2
aI2
aI2
aI2
aI2
aI2
aI2
aI2
aI2
aI2
aI2
aI2
aI2
aI2
aI2
aI2
aI2
aI2
aI2
aI2
aI2
aI2
aI2
aI2
aI2
aI2
aI2
aI2
aI2
aI2
aI2
aI3
aI3
aI3
aI3
aI3
aI3
aI3
aI3
aI3
aI3
aI2
aI2
aI2
aI2
aI2
aI2
aI2
aI2
aI3
aI2
aI2
aI3
aI3
aI3
aI3
aI3
aI3
aI3
aI3
aI3
aI2
aI2
aI2
aI2
aI2
aI2
aI2
aI2
aI2
aI3
aI3
aI3
aI3
aI3
aI3
aI3
aI3
aI2
aI2
aI2
aI2
aI2
aI3
aI3
aI3
aI2
aI2
aI2
aI2
aI2
aI2
aI3
aI3
aI2
aI1
aI1
aI1
aI0
aI1
aI1
aI1
aI2
aI3
aI3
aI2
aI2
aI1
aI2
aI1
aI2
aI1
aI2
aI1
aI2
aI1
aI2
aI2
aI2
aI3
aI3
aI3
aI3
aI3
aI3
aI3
aI3
aI3
aI0
aI0
aI0
aI0
aI0
aI0
aI0
aI3
asg5
I505
sa(dp161
g3
(lp162
I1
aI0
aI0
aI1
aI1
aI1
aI0
aI1
aI0
aI1
aI1
aI1
aI1
aI0
aI0
aI0
aI0
aI0
aI0
aI1
aI1
aI1
aI1
aI1
aI1
aI1
aI1
aI1
aI1
aI1
aI1
aI1
aI1
aI1
aI1
aI1
aI0
aI0
aI0
aI0
aI1
aI0
aI1
aI0
aI0
aI0
aI1
aI0
aI0
aI0
aI0
aI1
aI0
aI0
aI0
aI0
aI0
aI3
aI3
aI3
aI0
aI3
aI2
aI2
aI2
aI2
aI1
aI2
aI3
aI3
aI0
aI0
aI3
aI0
aI1
aI0
aI3
aI0
aI3
aI2
aI3
aI3
aI3
aI3
aI3
aI3
aI3
aI3
aI3
aI3
aI0
aI1
aI0
aI3
aI3
aI0
aI3
aI3
aI3
aI2
aI2
aI2
aI1
aI2
aI1
aI2
aI2
aI2
aI3
aI3
aI0
aI0
aI1
aI2
aI3
aI3
aI0
aI3
aI3
aI2
aI2
aI2
aI1
aI1
aI0
aI3
aI0
aI3
aI3
aI3
aI2
aI2
aI3
aI3
aI3
aI2
aI1
aI1
aI2
aI3
aI3
aI2
aI3
aI3
aI2
aI2
aI3
aI3
aI3
aI2
aI2
aI2
aI2
aI2
aI2
aI2
aI1
aI2
aI2
aI2
aI3
aI3
aI2
aI3
aI2
aI2
aI2
aI3
aI3
aI2
aI2
aI2
aI2
aI2
aI3
aI3
aI2
aI3
aI3
aI3
aI0
aI3
aI0
aI0
aI3
aI3
aI3
aI0
aI0
aI0
aI3
aI0
aI0
aI0
aI0
aI3
aI0
aI0
aI0
aI0
aI0
aI0
aI0
aI0
aI1
aI1
aI2
aI1
aI1
aI1
aI1
aI1
aI1
aI1
aI0
aI0
aI3
aI3
aI3
aI3
aI0
aI0
aI3
aI0
aI3
aI2
aI2
aI3
aI3
aI0
aI3
aI0
asg5
I232
sa(dp163
g3
(lp164
I2
aI1
aI2
aI1
aI1
aI0
aI1
aI1
aI2
aI2
aI1
aI1
aI1
aI1
aI2
aI2
aI3
aI3
aI3
aI3
aI3
aI3
aI3
aI0
aI3
aI3
aI2
aI2
aI2
aI2
aI2
aI2
aI2
aI2
aI1
aI2
aI2
aI2
aI2
aI1
aI2
aI2
aI2
aI1
aI1
aI1
aI2
aI2
aI1
aI2
aI1
aI1
aI1
aI1
aI1
aI0
aI0
aI0
aI0
aI0
aI0
aI1
aI1
aI0
aI0
aI0
aI1
aI0
aI1
aI1
aI0
aI0
aI0
aI3
aI0
aI0
aI0
aI0
aI0
aI0
aI0
aI1
aI1
aI1
aI0
aI0
aI1
aI1
aI0
aI0
aI0
aI0
aI1
aI2
aI1
aI1
aI2
aI1
aI1
aI1
aI1
aI2
aI1
aI1
aI1
aI1
aI0
aI1
aI1
aI0
aI0
aI0
aI0
aI0
aI0
aI1
aI1
aI1
aI1
aI1
aI0
aI1
aI2
aI1
aI1
aI2
aI3
aI3
aI3
aI2
aI2
aI1
aI1
aI1
aI0
aI1
aI2
aI2
aI1
aI1
aI0
aI0
aI1
aI2
aI1
aI2
aI3
aI2
aI2
aI2
aI2
aI3
aI3
aI2
aI2
aI1
aI1
aI2
aI2
aI2
aI2
aI2
aI2
aI2
aI1
aI1
aI0
aI0
aI0
aI0
aI3
aI0
aI1
aI0
aI0
aI0
aI1
aI0
aI0
aI0
aI0
aI1
aI0
aI0
aI0
aI0
aI0
aI0
aI0
aI1
aI1
aI1
aI0
aI0
aI0
aI0
aI0
aI0
aI0
aI0
aI0
aI0
aI0
aI0
aI0
aI0
aI1
aI1
aI1
aI1
aI1
aI0
aI0
aI0
aI0
asg5
I215
sag86
a(dp165
S'trail'
p166
(lp167
I2
aI1
aI2
aI1
aI1
aI0
aI0
aI1
aI2
aI1
aI0
aI1
aI0
aI1
aI1
aI2
aI1
aI2
aI1
aI1
aI0
aI0
aI0
aI0
aI3
aI3
aI3
aI3
aI3
aI3
aI3
aI3
aI3
aI3
aI3
aI0
aI3
aI0
aI0
aI0
aI1
aI1
aI2
aI1
aI2
aI1
aI1
aI0
aI1
aI1
aI1
aI0
aI0
aI3
aI3
aI0
aI3
aI3
aI3
aI0
aI0
aI1
aI1
aI1
aI1
aI1
aI0
aI0
aI0
aI0
aI0
aI0
aI1
aI2
aI1
aI0
aI1
aI0
aI1
aI1
aI2
aI3
aI2
aI3
aI0
aI0
aI3
aI3
aI3
aI0
aI0
aI1
aI2
aI1
aI1
aI0
aI3
aI0
aI1
aI0
aI0
aI3
aI3
aI2
aI1
aI3
aI2
aI3
aI0
aI0
aI0
aI1
aI0
aI3
aI0
aI1
aI0
aI1
aI2
aI2
aI2
aI1
aI1
aI1
aI0
aI1
aI0
aI0
aI3
aI2
aI3
aI2
aI3
aI0
aI0
aI0
aI0
aI1
aI2
aI2
aI1
aI0
aI1
aI0
asS'length'
p168
I144
sag86
a(dp169
g3
(lp170
I0
aI1
aI0
aI0
aI3
aI0
aI0
aI0
aI0
aI3
aI0
aI0
aI3
aI2
aI3
aI3
aI3
aI3
aI0
aI3
aI0
aI0
aI3
aI3
aI3
aI0
aI0
aI0
aI3
aI0
aI0
aI0
aI0
aI3
aI0
aI0
aI0
aI0
aI0
aI0
aI0
aI0
aI1
aI1
aI2
aI1
aI1
aI1
aI1
aI1
aI1
aI1
aI0
aI0
aI3
aI3
aI3
aI3
aI0
aI0
aI3
aI3
aI2
aI3
aI3
aI0
aI3
aI0
asg5
I68
sa(dp171
g3
(lp172
I2
aI1
aI2
aI1
aI1
aI0
aI1
aI1
aI2
aI2
aI1
aI1
aI1
aI1
aI2
aI2
aI3
aI3
aI3
aI3
aI3
aI3
aI3
aI0
aI3
aI3
aI2
aI2
aI2
aI2
aI2
aI2
aI2
aI2
aI1
aI2
aI2
aI2
aI2
aI1
aI2
aI2
aI2
aI1
aI1
aI1
aI2
aI2
aI1
aI2
aI1
aI1
aI1
aI0
aI1
aI1
aI0
aI0
aI0
aI0
aI0
aI1
aI1
aI0
aI0
aI0
aI1
aI0
aI1
aI1
aI0
aI0
aI0
aI3
aI0
aI0
aI0
aI0
aI0
aI0
aI0
aI1
aI1
aI1
aI0
aI0
aI1
aI1
aI0
aI0
aI1
aI2
aI1
aI0
aI0
aI1
aI2
aI2
aI1
aI1
aI0
aI0
aI1
aI2
aI2
aI1
aI0
aI0
aI1
aI0
aI3
aI3
aI0
aI1
aI1
aI0
aI1
aI2
aI1
aI1
aI1
aI1
aI0
aI0
aI0
aI1
aI1
aI1
aI1
aI1
aI1
aI0
aI1
aI1
aI0
aI3
aI3
aI3
aI2
aI3
aI0
aI0
aI1
aI0
aI1
aI2
aI1
aI0
aI1
aI2
aI1
aI2
aI2
aI1
aI1
aI1
aI1
aI1
aI2
aI1
aI1
aI0
aI0
aI0
aI1
aI2
aI1
aI1
aI0
aI0
aI0
aI0
aI0
aI0
aI0
aI0
aI0
aI0
aI0
aI0
aI0
aI0
aI1
aI1
aI1
aI1
aI1
aI0
aI0
aI0
aI0
aI3
aI2
aI3
aI0
aI3
aI3
aI3
aI0
aI0
aI1
aI1
aI1
aI1
aI1
aI0
aI0
aI0
aI0
aI0
aI3
aI3
aI3
aI3
aI0
aI3
aI0
aI0
aI0
aI1
aI1
aI1
aI1
aI0
aI0
aI0
aI0
aI0
aI0
aI1
aI1
aI1
aI2
aI2
aI2
aI2
aI2
aI2
aI2
aI2
aI2
aI2
aI2
aI2
aI2
aI2
aI2
aI2
aI2
aI2
aI2
aI2
aI2
aI2
aI2
aI2
aI2
aI2
aI2
aI2
aI2
aI2
aI2
aI2
aI2
aI2
aI2
aI2
aI2
aI2
aI2
aI2
aI2
aI2
aI2
aI2
aI2
aI1
aI1
aI0
aI0
aI0
aI0
aI0
aI0
aI0
aI0
aI0
aI0
aI0
aI0
aI0
aI0
aI0
aI0
aI0
aI0
aI0
aI0
aI0
aI0
aI0
aI0
aI0
aI0
aI0
aI0
aI0
aI0
aI0
aI0
aI0
aI0
aI0
aI0
aI0
aI0
aI0
aI0
aI0
aI0
aI0
aI0
aI0
aI1
aI1
aI2
aI2
aI2
aI2
aI2
aI2
aI2
aI2
aI2
aI2
aI2
aI2
aI2
aI2
aI2
aI2
aI2
aI2
aI1
aI1
aI1
aI1
aI1
aI1
aI0
aI0
aI0
aI0
aI0
aI0
aI0
aI0
aI0
aI0
aI0
aI0
aI0
aI0
aI0
aI0
aI0
aI0
aI1
aI1
aI2
aI2
aI2
aI2
aI2
aI2
aI2
aI2
aI2
aI2
aI2
aI2
aI2
aI2
aI2
aI2
aI2
aI2
aI2
aI2
aI2
aI2
aI2
aI2
aI2
aI2
aI2
aI2
aI2
aI2
aI2
aI2
aI2
aI2
aI2
aI2
aI2
aI2
aI3
aI3
aI3
aI3
aI3
aI3
aI3
aI3
aI2
aI2
aI2
aI2
aI2
aI2
aI2
aI2
aI3
aI2
aI2
aI3
aI3
aI3
aI3
aI3
aI3
aI3
aI3
aI3
asg5
I436
sa(dp173
g166
(lp174
I2
aI1
aI2
aI1
aI1
aI0
aI1
aI1
aI2
aI2
aI1
aI1
aI1
aI1
aI2
aI2
aI3
aI3
aI3
aI3
aI3
aI3
aI3
aI0
aI3
aI3
aI2
aI2
aI2
aI2
aI2
aI2
aI2
aI2
aI1
aI2
aI2
aI2
aI2
aI1
aI2
aI2
aI2
aI1
aI1
aI1
aI1
aI2
aI2
aI2
aI1
aI1
aI1
aI1
aI1
aI0
aI0
aI0
aI0
aI0
aI0
aI1
aI1
aI0
aI0
aI0
aI1
aI0
aI1
aI1
aI0
aI0
aI0
aI3
aI0
aI0
aI0
aI0
aI0
aI0
aI0
aI1
aI1
aI1
aI0
aI0
aI1
aI1
aI0
aI1
aI0
aI1
aI0
aI3
aI3
aI0
aI1
aI0
aI0
aI1
aI0
aI0
aI0
aI1
aI2
aI1
aI0
aI0
aI1
aI0
aI3
aI0
aI1
aI1
aI1
aI2
aI1
aI1
aI1
aI0
aI0
aI1
asg168
I122
sa(dp175
g3
(lp176
I2
aI1
aI2
aI1
aI1
aI0
aI1
aI1
aI2
aI2
aI1
aI1
aI1
aI1
aI2
aI2
aI3
aI3
aI3
aI3
aI3
aI3
aI3
aI0
aI3
aI3
aI2
aI2
aI2
aI2
aI2
aI2
aI2
aI2
aI1
aI2
aI2
aI2
aI2
aI1
aI2
aI2
aI2
aI1
aI1
aI1
aI2
aI2
aI1
aI2
aI1
aI1
aI1
aI0
aI1
aI1
aI0
aI0
aI0
aI0
aI0
aI1
aI1
aI0
aI0
aI0
aI1
aI0
aI1
aI1
aI0
aI0
aI0
aI3
aI0
aI0
aI0
aI0
aI0
aI0
aI0
aI1
aI1
aI1
aI0
aI0
aI1
aI1
aI0
aI1
aI1
aI1
aI0
aI1
aI2
aI1
aI0
aI0
aI3
aI0
aI3
aI0
aI1
aI0
aI1
aI2
aI1
aI2
aI2
aI2
aI2
aI1
aI0
aI1
aI0
aI3
aI0
aI0
aI1
aI0
aI1
aI1
aI0
aI1
aI1
aI0
aI1
aI1
aI1
aI1
aI1
aI1
aI1
aI0
aI3
aI0
aI0
aI1
aI1
aI1
aI2
aI3
aI2
aI2
aI1
aI0
aI1
aI1
aI1
aI1
aI0
aI1
aI1
aI2
aI2
aI1
aI1
aI0
aI0
aI1
aI1
aI1
aI0
aI0
aI0
aI0
aI0
aI0
aI0
aI0
aI0
aI0
aI0
aI0
aI0
aI0
aI1
aI1
aI1
aI1
aI1
aI0
aI0
aI0
aI0
aI3
aI3
aI2
aI1
aI0
aI3
aI3
aI3
aI2
aI1
aI0
aI3
aI3
aI0
aI0
aI1
aI1
aI1
aI1
aI1
aI0
aI0
aI0
aI0
aI0
aI3
aI3
aI3
aI3
aI0
aI3
aI0
aI0
aI0
aI1
aI1
aI1
aI1
aI0
aI0
aI0
aI0
aI0
aI0
aI1
aI1
aI1
aI2
aI2
aI2
aI2
aI2
aI2
aI2
aI2
aI2
aI2
aI2
aI2
aI2
aI2
aI2
aI2
aI2
aI2
aI2
aI2
aI2
aI2
aI2
aI2
aI2
aI2
aI2
aI2
aI2
aI2
aI2
aI2
aI2
aI2
aI2
aI2
aI2
aI2
aI2
aI2
aI2
aI2
aI2
aI2
aI2
aI1
aI1
aI0
aI0
aI0
aI0
aI0
aI0
aI0
aI0
aI0
aI0
aI0
aI0
aI0
aI0
aI0
aI0
aI0
aI0
aI0
aI0
aI0
aI0
aI0
aI0
aI0
aI0
aI0
aI0
aI0
aI0
aI0
aI0
aI0
aI0
aI0
aI0
aI0
aI0
aI0
aI0
aI0
aI0
aI0
aI0
aI0
aI1
aI1
aI2
aI2
aI2
aI2
aI2
aI2
aI2
aI2
aI2
aI2
aI2
aI2
aI2
aI2
aI2
aI2
aI2
aI2
aI1
aI1
aI1
aI1
aI1
aI1
aI0
aI0
aI0
aI0
aI0
aI0
aI0
aI0
aI0
aI0
aI0
aI0
aI0
aI0
aI0
aI0
aI0
aI0
aI1
aI1
aI1
aI1
aI2
aI2
aI2
aI2
aI2
aI2
aI2
aI2
aI2
aI2
aI2
aI2
aI2
aI2
aI2
aI2
aI2
aI2
aI2
aI2
aI2
aI2
aI2
aI2
aI2
aI2
aI2
aI2
aI2
aI2
aI2
aI2
aI2
aI2
aI2
aI2
aI2
aI2
aI1
aI1
aI0
aI0
aI0
aI0
aI0
aI0
aI0
aI0
aI0
aI0
aI0
aI0
aI0
aI0
aI0
aI0
aI0
aI0
aI0
aI0
aI0
aI0
aI0
aI0
aI0
aI0
aI0
aI0
aI0
aI0
aI0
aI0
aI0
aI0
aI0
aI0
aI0
aI0
aI1
aI1
aI2
aI2
aI2
aI1
aI2
aI3
aI2
aI2
aI2
aI2
aI1
aI2
aI3
aI2
aI2
aI1
aI2
aI2
aI3
aI0
aI2
aI2
aI1
aI2
aI3
aI2
aI1
aI2
aI3
aI2
aI1
aI2
asg5
I484
sa(dp177
g3
(lp178
I2
aI1
aI2
aI1
aI1
aI0
aI0
aI1
aI2
aI1
aI0
aI1
aI0
aI1
aI1
aI2
aI1
aI2
aI1
aI1
aI0
aI0
aI0
aI0
aI3
aI3
aI3
aI3
aI3
aI3
aI3
aI3
aI3
aI3
aI3
aI0
aI3
aI0
aI0
aI0
aI1
aI1
aI2
aI1
aI2
aI1
aI1
aI0
aI1
aI1
aI1
aI0
aI0
aI3
aI3
aI0
aI3
aI3
aI3
aI0
aI0
aI1
aI1
aI0
aI0
aI3
aI3
aI3
aI3
aI3
aI0
aI0
aI0
aI1
aI1
aI1
aI1
aI1
aI0
aI0
aI3
aI3
aI3
aI3
aI3
aI0
aI0
aI1
aI1
aI1
aI1
aI1
aI0
aI0
aI3
aI3
aI3
aI3
aI3
aI0
aI0
aI1
aI1
aI1
aI1
aI1
aI0
aI0
aI3
aI3
aI3
aI3
aI3
aI0
aI0
aI1
aI1
aI1
aI1
aI1
aI0
aI0
aI3
aI3
aI3
aI3
aI3
aI0
aI0
aI1
aI1
aI1
aI1
aI1
aI1
aI1
aI0
aI0
aI1
aI1
aI1
aI1
aI1
aI1
aI1
aI1
aI1
aI2
aI2
aI2
aI2
aI2
aI2
aI2
aI2
aI2
aI2
aI2
aI2
aI2
aI2
aI2
aI2
aI2
aI2
aI2
aI2
aI1
aI1
aI0
aI0
aI0
aI1
aI1
aI1
aI1
aI1
aI1
aI1
aI1
aI1
aI1
aI1
aI1
aI1
aI0
aI0
aI0
aI0
aI0
aI0
aI0
aI0
aI0
aI0
aI0
aI0
aI0
aI0
aI0
aI0
aI0
aI0
aI0
aI0
aI0
aI0
aI0
aI0
aI0
aI0
aI0
aI3
aI3
aI3
aI3
aI3
aI3
aI3
aI3
aI3
aI3
aI3
aI3
asg5
I224
sa(dp179
g3
(lp180
I2
aI1
aI2
aI1
aI1
aI0
aI1
aI1
aI2
aI2
aI1
aI1
aI1
aI1
aI2
aI2
aI3
aI3
aI3
aI3
aI3
aI3
aI3
aI0
aI3
aI3
aI2
aI2
aI2
aI2
aI2
aI2
aI2
aI2
aI1
aI2
aI2
aI2
aI2
aI1
aI2
aI2
aI2
aI1
aI1
aI1
aI2
aI2
aI1
aI2
aI1
aI1
aI1
aI0
aI1
aI1
aI0
aI0
aI0
aI0
aI0
aI1
aI1
aI0
aI0
aI0
aI1
aI0
aI1
aI1
aI0
aI0
aI0
aI3
aI0
aI0
aI0
aI0
aI0
aI0
aI0
aI1
aI1
aI1
aI0
aI0
aI1
aI1
aI0
aI1
aI0
aI0
aI1
aI1
aI1
aI0
aI3
aI0
aI1
aI0
aI1
aI1
aI1
aI2
aI2
aI1
aI0
aI1
aI1
aI0
aI3
aI3
aI0
aI0
aI1
aI1
aI2
aI1
aI2
aI2
aI1
aI0
aI0
aI0
aI1
aI1
aI1
aI1
aI1
aI2
aI1
aI0
aI0
aI1
aI1
aI2
aI3
aI2
aI1
aI1
aI0
aI1
aI2
aI1
aI2
aI1
aI1
aI0
aI1
aI0
aI1
aI1
aI1
aI2
aI2
aI2
aI2
aI2
aI3
aI2
aI2
aI2
aI2
aI3
aI2
aI2
aI2
aI3
aI1
aI0
aI2
aI0
aI0
aI0
aI1
aI0
aI2
aI0
aI0
aI2
aI0
aI0
aI2
aI2
aI2
aI3
aI1
aI3
aI2
aI2
aI0
aI0
aI1
aI0
aI0
aI2
aI2
aI0
aI2
aI0
aI2
aI0
aI0
aI2
aI2
aI3
aI1
aI3
aI1
aI3
aI2
aI2
aI2
aI3
aI2
aI0
aI1
aI0
aI0
aI2
aI0
aI2
aI0
aI0
aI1
aI3
aI1
aI0
aI0
aI2
aI0
aI0
aI2
aI0
aI0
aI1
aI0
aI2
aI0
aI0
aI2
aI2
aI0
aI2
aI3
aI2
aI2
aI2
aI2
aI0
aI0
aI0
aI0
aI2
aI2
aI2
aI0
aI2
aI2
aI0
aI2
aI0
aI0
aI0
aI0
aI2
aI0
aI2
aI2
aI2
aI0
aI0
aI2
aI2
aI0
aI2
aI2
aI0
aI2
aI0
aI2
aI3
aI1
aI0
aI2
aI3
aI1
aI0
aI2
aI0
aI0
aI0
aI2
aI2
aI2
aI0
aI2
aI3
aI2
aI0
aI1
aI0
aI0
aI0
aI0
aI2
aI0
aI2
aI0
aI2
aI0
aI2
aI0
aI1
aI3
aI2
aI0
aI1
aI3
aI2
aI2
aI0
aI2
aI2
aI2
aI0
aI0
aI2
aI2
aI3
aI2
aI2
aI0
aI0
aI2
aI0
aI2
aI0
aI1
aI3
aI1
aI0
aI0
aI0
aI2
aI0
aI2
aI2
aI0
aI2
aI0
aI2
aI0
aI2
aI2
aI3
aI1
aI3
aI1
aI3
aI2
aI0
aI2
aI2
aI2
aI3
aI2
aI0
aI2
aI3
aI2
aI2
aI0
aI0
aI2
aI2
aI2
aI0
aI0
aI2
aI2
aI0
aI2
aI0
aI2
aI0
aI2
aI0
aI2
aI2
aI3
aI3
aI3
aI3
aI3
aI3
aI3
aI3
aI3
aI3
aI3
aI3
aI3
aI3
aI3
aI3
aI3
aI2
aI2
aI2
aI2
aI2
aI2
aI3
aI3
aI3
aI3
aI2
aI3
aI2
aI3
aI3
aI3
aI2
aI2
aI3
aI2
aI1
aI1
aI1
aI0
aI1
aI1
aI1
aI2
aI1
aI1
aI1
aI2
aI2
aI2
aI2
aI2
aI2
aI2
aI2
aI3
aI2
aI1
aI2
aI2
aI2
aI2
aI2
asg5
I454
saa(lp181
g6
ag20
ag57
ag88
ag99
ag130
ag159
a(dp182
g3
(lp183
sg5
I0
sa(dp184
g3
(lp185
I1
aI0
aI0
aI1
aI1
aI1
aI0
aI1
aI0
aI1
aI1
aI1
aI1
aI0
aI0
aI0
aI0
aI0
aI0
aI1
aI1
aI1
aI1
aI1
aI1
aI1
aI1
aI1
aI1
aI1
aI1
aI1
aI1
aI1
aI1
aI1
aI0
aI0
aI0
aI0
aI0
aI0
aI0
aI0
aI0
aI0
aI0
aI0
aI0
aI3
aI0
aI1
aI1
aI2
aI1
aI0
aI0
aI3
aI0
aI1
aI0
aI1
aI1
aI0
aI0
aI1
aI1
aI1
aI0
aI0
aI0
aI0
aI0
aI0
aI0
aI0
aI0
aI0
aI0
aI0
aI0
aI0
aI1
aI1
aI1
aI1
aI1
aI0
aI0
aI0
aI0
aI3
aI3
aI3
aI2
aI3
aI0
aI3
aI0
aI0
aI1
aI1
aI1
aI1
aI1
aI0
aI0
aI0
aI0
aI0
aI3
aI3
aI3
aI3
aI0
aI3
aI0
aI0
aI0
aI1
aI1
aI1
aI1
aI0
aI0
aI0
aI0
aI0
aI0
aI1
aI1
aI1
aI2
aI2
aI2
aI2
aI2
aI2
aI2
aI2
aI2
aI2
aI2
aI2
aI2
aI2
aI2
aI2
aI2
aI2
aI2
aI2
aI2
aI2
aI2
aI2
aI2
aI2
aI2
aI2
aI2
aI2
aI2
aI2
aI2
aI2
aI2
aI2
aI2
aI2
aI2
aI2
aI2
aI2
aI2
aI2
aI2
aI1
aI1
aI0
aI0
aI0
aI0
aI0
aI0
aI0
aI0
aI0
aI0
aI0
aI0
aI0
aI0
aI0
aI0
aI0
aI0
aI0
aI0
aI0
aI0
aI0
aI0
aI0
aI0
aI0
aI0
aI0
aI0
aI0
aI0
aI0
aI0
aI0
aI0
aI0
aI0
aI0
aI0
aI0
aI0
aI0
aI0
aI0
aI1
aI1
aI1
aI1
aI1
aI1
aI1
aI1
aI1
aI1
aI2
aI2
aI2
aI2
aI2
aI2
aI2
aI2
aI2
aI2
aI2
aI2
aI2
aI2
aI2
aI2
aI2
aI2
aI2
aI2
aI2
aI2
aI2
aI2
aI2
aI2
aI2
aI2
aI2
aI2
aI2
aI2
aI2
aI2
aI2
aI2
aI2
aI2
aI3
aI3
aI3
aI3
aI3
aI3
aI3
aI3
aI2
aI2
aI2
aI2
aI2
aI2
aI2
aI2
aI3
aI2
aI2
aI3
aI3
aI3
aI3
aI3
aI3
aI3
aI3
aI3
aI2
aI2
aI2
aI2
aI2
aI2
aI2
aI2
aI2
aI3
aI3
aI3
aI3
aI3
aI3
aI3
aI3
aI2
aI2
aI2
aI2
aI2
aI3
aI3
aI3
aI2
aI2
aI2
aI2
aI2
aI2
aI1
aI1
aI1
aI1
aI1
aI1
aI0
aI0
aI1
aI1
aI0
aI1
aI2
aI2
aI3
aI3
aI2
aI2
aI3
aI3
aI3
aI3
aI3
aI2
aI2
aI1
aI2
aI1
aI2
aI1
aI2
aI1
aI2
aI1
aI2
aI2
aI2
aI3
aI3
aI3
aI3
aI3
aI3
aI3
aI3
aI3
aI0
aI0
aI0
aI0
aI0
aI0
aI0
aI3
asg5
I385
sa(dp186
S'trail'
p187
(lp188
I1
aI2
aI2
aI2
aI2
aI2
aI2
aI2
aI1
aI1
aI1
aI1
aI1
aI1
aI1
aI1
aI1
aI0
aI0
aI0
aI3
aI0
aI3
aI0
aI3
aI0
aI3
aI0
aI3
aI0
aI0
aI3
aI3
aI0
aI3
aI2
aI3
aI0
aI3
aI0
aI0
aI0
aI0
aI3
aI0
aI0
aI1
aI1
aI1
aI1
aI1
aI1
aI1
aI0
aI0
aI0
aI0
aI0
aI1
aI1
aI1
aI1
aI1
aI1
aI1
aI1
aI0
aI0
aI0
aI0
aI0
aI0
aI0
aI0
aI0
aI1
aI1
aI1
aI1
aI1
aI1
aI1
aI1
aI1
aI0
aI0
aI1
aI0
aI0
aI0
aI0
aI0
aI0
aI0
aI0
aI1
aI1
aI1
aI1
aI1
aI1
aI1
aI1
aI0
aI0
aI0
aI0
aI0
aI0
aI0
aI0
aI0
aI0
aI0
aI0
aI0
aI0
aI0
aI0
aI0
aI0
aI0
aI0
aI0
aI0
aI0
aI0
aI0
aI0
aI0
aI0
aI0
aI0
aI0
aI0
aI0
aI0
aI0
aI0
aI0
aI0
aI3
aI3
aI3
aI3
aI3
aI3
aI3
aI3
aI3
aI3
aI2
aI2
aI2
aI2
aI2
aI2
aI2
aI2
aI2
aI2
aI2
aI2
aI2
aI2
aI2
aI2
aI2
aI2
aI2
aI2
aI2
aI2
aI2
aI2
aI2
aI2
aI2
aI2
aI2
aI2
aI2
aI2
aI2
aI2
aI2
aI2
aI2
aI2
aI2
aI2
aI2
aI2
aI2
aI2
aI2
aI3
aI3
aI0
aI0
aI0
aI0
aI0
aI0
aI0
aI0
aI0
aI0
aI0
aI0
aI0
aI0
aI0
aI0
aI0
aI0
aI0
aI0
aI0
aI0
aI0
aI0
aI0
aI0
aI0
aI0
aI0
aI0
aI0
aI0
aI0
aI0
aI0
aI0
aI0
aI0
aI0
aI0
aI0
aI0
aI0
aI0
aI0
aI3
aI3
aI3
aI2
aI2
aI2
aI2
aI2
aI2
aI3
aI3
aI3
aI3
aI2
aI2
aI2
aI1
aI2
aI1
aI1
aI1
aI1
aI2
aI2
aI2
aI2
aI2
aI3
aI3
aI3
aI3
aI3
aI2
aI2
aI1
aI1
aI1
aI1
aI1
asS'length'
p189
I282
sa(dp190
g3
(lp191
I1
aI2
aI2
aI2
aI2
aI2
aI2
aI2
aI1
aI1
aI1
aI1
aI1
aI1
aI1
aI1
aI1
aI0
aI0
aI0
aI3
aI0
aI3
aI0
aI3
aI0
aI3
aI0
aI3
aI0
aI0
aI1
aI1
aI0
aI3
aI3
aI3
aI3
aI0
aI0
aI0
aI0
aI0
aI0
aI1
aI1
aI1
aI0
aI0
aI0
aI0
aI0
aI1
aI1
aI1
aI1
aI1
aI1
aI1
aI1
aI0
aI0
aI0
aI0
aI0
aI0
aI0
aI0
aI0
aI1
aI1
aI1
aI1
aI1
aI1
aI1
aI1
aI1
aI0
aI0
aI1
aI0
aI0
aI0
aI0
aI0
aI0
aI0
aI0
aI1
aI1
aI1
aI1
aI1
aI1
aI1
aI1
aI0
aI0
aI0
aI0
aI0
aI0
aI0
aI0
aI0
aI0
aI0
aI0
aI0
aI0
aI0
aI0
aI0
aI0
aI0
aI0
aI0
aI0
aI0
aI0
aI0
aI0
aI0
aI0
aI0
aI0
aI0
aI0
aI0
aI0
aI0
aI0
aI0
aI0
aI3
aI3
aI2
aI2
aI2
aI2
aI2
aI2
aI2
aI2
aI2
aI2
aI2
aI2
aI2
aI2
aI2
aI2
aI2
aI2
aI3
aI3
aI3
aI3
aI3
aI3
aI0
aI0
aI0
aI0
aI0
aI0
aI0
aI0
aI0
aI0
aI0
aI0
aI0
aI0
aI0
aI0
aI0
aI0
aI3
aI3
aI2
aI2
aI2
aI2
aI2
aI2
aI2
aI2
aI2
aI2
aI2
aI2
aI2
aI2
aI2
aI2
aI2
aI2
aI2
aI2
aI2
aI2
aI2
aI2
aI2
aI2
aI2
aI2
aI2
aI2
aI2
aI2
aI2
aI2
aI2
aI2
aI2
aI2
aI2
aI2
aI2
aI2
aI2
aI2
aI2
aI3
aI3
aI0
aI0
aI0
aI0
aI0
aI0
aI0
aI0
aI0
aI0
aI0
aI0
aI0
aI0
aI0
aI0
aI0
aI0
aI0
aI0
aI0
aI0
aI0
aI0
aI0
aI0
aI0
aI0
aI0
aI0
aI0
aI0
aI0
aI0
aI0
aI0
aI0
aI0
aI0
aI0
aI0
aI0
aI0
aI0
aI0
aI3
aI3
aI3
aI2
aI2
aI2
aI2
aI2
aI2
aI3
aI3
aI3
aI3
aI2
aI2
aI2
aI1
aI2
aI1
aI1
aI1
aI1
aI2
aI2
aI2
aI2
aI2
aI3
aI3
aI3
aI3
aI3
aI2
aI2
aI2
aI1
aI0
aI1
aI1
aI1
aI1
aI2
aI2
aI2
aI2
aI3
aI3
aI3
aI3
aI3
aI2
aI2
aI2
aI2
aI2
aI2
aI2
aI2
aI2
aI2
aI2
aI2
aI2
aI2
aI3
aI3
aI0
aI3
aI2
aI2
aI2
aI3
aI3
aI3
aI2
aI3
aI2
aI3
aI3
aI0
aI3
aI0
asg5
I355
sa(dp192
g3
(lp193
I2
aI3
aI2
aI2
aI1
aI2
aI2
aI3
aI2
aI1
aI2
aI2
aI2
aI2
aI2
aI3
aI3
aI3
aI2
aI3
aI0
aI0
aI3
aI3
aI2
aI2
aI1
aI2
aI3
aI2
aI2
aI2
aI2
aI2
aI3
aI3
aI3
aI3
aI3
aI2
aI2
aI1
aI1
aI1
aI2
aI1
aI1
aI2
aI2
aI3
aI3
aI3
aI2
aI3
aI3
aI0
aI3
aI0
aI3
aI3
aI2
aI2
aI2
aI1
aI2
aI1
aI1
aI1
aI1
aI1
aI1
aI1
aI1
aI1
aI1
aI1
aI2
aI2
aI2
aI2
aI3
aI3
aI0
aI3
aI0
aI3
aI3
aI2
aI3
aI2
aI2
aI2
aI1
aI1
aI1
aI1
aI2
aI2
aI3
aI3
aI3
aI3
aI3
aI3
aI3
aI0
aI3
aI3
aI2
aI2
aI2
aI2
aI2
aI2
aI2
aI2
aI1
aI2
aI2
aI2
aI2
aI1
aI2
aI2
aI2
aI1
aI1
aI1
aI2
aI2
aI1
aI2
aI1
aI1
aI1
aI0
aI1
aI2
aI1
aI0
aI0
aI0
aI0
aI0
aI0
aI1
aI1
aI0
aI0
aI0
aI1
aI0
aI1
aI1
aI0
aI0
aI0
aI3
aI0
aI0
aI0
aI0
aI0
aI0
aI0
aI1
aI1
aI1
aI0
aI0
aI1
aI1
aI0
aI0
aI1
aI2
aI1
aI0
aI0
aI1
aI0
aI1
aI2
aI2
aI1
aI1
aI2
aI1
aI1
aI1
aI0
aI0
aI0
aI1
aI0
aI1
aI1
aI0
aI0
aI1
aI0
aI1
aI1
aI1
aI1
aI2
aI2
aI1
aI2
aI3
aI2
aI1
aI1
aI0
aI1
aI2
aI1
aI0
aI0
aI1
aI0
aI3
aI3
aI0
aI1
aI1
aI1
aI2
aI2
aI2
aI1
aI2
aI1
aI0
aI0
aI0
aI0
aI1
aI2
aI2
aI1
aI0
aI0
aI1
aI1
aI0
aI0
aI1
aI1
aI1
aI0
aI0
aI0
aI0
aI0
aI0
aI0
aI0
aI0
aI0
aI0
aI0
aI0
aI0
aI1
aI1
aI1
aI1
aI1
aI0
aI0
aI0
aI3
aI0
aI1
aI3
aI3
aI3
aI3
aI3
aI0
aI0
aI1
aI1
aI1
aI1
aI1
aI0
aI0
aI0
aI0
aI0
aI3
aI3
aI3
aI3
aI0
aI3
aI0
aI0
aI0
aI1
aI1
aI1
aI1
aI0
aI0
aI0
aI0
aI0
aI0
aI1
aI1
aI1
aI2
aI2
aI2
aI2
aI2
aI2
aI2
aI2
aI2
aI2
aI2
aI2
aI2
aI2
aI2
aI2
aI2
aI2
aI2
aI2
aI2
aI2
aI2
aI2
aI2
aI2
aI2
aI2
aI2
aI2
aI2
aI2
aI2
aI2
aI2
aI2
aI2
aI2
aI2
aI2
aI2
aI2
aI2
aI2
aI2
aI1
aI1
aI0
aI0
aI0
aI0
aI0
aI0
aI0
aI0
aI0
aI0
aI0
aI0
aI0
aI0
aI0
aI0
aI0
aI0
aI0
aI0
aI0
aI0
aI0
aI0
aI0
aI0
aI0
aI0
aI0
aI0
aI0
aI0
aI0
aI0
aI0
aI0
aI0
aI0
aI0
aI0
aI0
aI0
aI0
aI0
aI0
aI1
aI1
aI1
aI1
aI1
aI1
aI1
aI1
aI1
aI1
aI2
aI2
aI2
aI2
aI2
aI2
aI2
aI2
aI2
aI2
aI2
aI2
aI2
aI2
aI2
aI2
aI2
aI2
aI2
aI2
aI2
aI2
aI2
aI2
aI2
aI2
aI2
aI2
aI2
aI2
aI2
aI2
aI2
aI2
aI2
aI2
aI2
aI2
aI3
aI3
aI0
aI0
aI0
aI0
aI3
aI3
aI3
aI3
aI3
aI3
aI2
aI2
aI2
aI2
aI1
aI1
aI1
aI1
aI1
aI3
aI3
aI1
aI3
aI1
aI1
aI3
aI3
aI3
aI1
aI3
aI1
aI3
aI3
aI3
aI2
aI2
aI2
aI2
aI2
aI2
aI2
aI2
aI3
aI2
aI2
aI3
aI3
aI3
aI3
aI3
aI3
aI3
aI3
aI3
aI2
aI2
aI2
aI2
aI2
aI2
aI2
aI2
aI2
aI3
aI3
aI3
aI3
aI3
aI3
aI3
aI3
aI2
aI2
aI2
aI2
aI2
aI3
aI3
aI3
aI3
aI3
aI3
aI3
aI3
aI2
aI2
aI1
aI0
aI1
aI2
aI2
aI2
aI2
aI2
aI2
aI1
aI1
aI1
aI1
aI1
aI2
aI2
aI1
aI2
aI1
aI2
aI1
aI2
aI1
aI2
aI1
aI2
aI2
aI2
aI3
aI3
aI3
aI3
aI3
aI3
aI3
aI3
aI3
aI0
aI0
aI0
aI0
aI0
aI0
aI0
aI3
asg5
I587
sa(dp194
g3
(lp195
I1
aI2
aI2
aI2
aI2
aI2
aI2
aI2
aI1
aI1
aI1
aI1
aI1
aI1
aI1
aI1
aI1
aI0
aI0
aI0
aI3
aI0
aI3
aI0
aI3
aI0
aI3
aI0
aI3
aI0
aI0
aI3
aI0
aI3
aI0
aI0
aI0
aI0
aI0
aI0
aI1
aI1
aI1
aI0
aI0
aI0
aI0
aI0
aI1
aI1
aI1
aI1
aI1
aI1
aI1
aI1
aI0
aI0
aI0
aI0
aI0
aI0
aI0
aI0
aI0
aI1
aI1
aI1
aI1
aI1
aI1
aI1
aI1
aI1
aI0
aI0
aI1
aI0
aI0
aI0
aI0
aI0
aI0
aI0
aI0
aI1
aI1
aI1
aI1
aI1
aI1
aI1
aI1
aI0
aI0
aI0
aI0
aI0
aI0
aI0
aI0
aI0
aI0
aI0
aI0
aI0
aI0
aI0
aI0
aI0
aI0
aI0
aI0
aI0
aI0
aI0
aI0
aI0
aI0
aI0
aI0
aI0
aI0
aI0
aI0
aI0
aI0
aI0
aI0
aI0
aI0
aI3
aI3
aI2
aI2
aI2
aI2
aI2
aI2
aI2
aI2
aI2
aI2
aI2
aI2
aI2
aI2
aI2
aI2
aI2
aI2
aI3
aI3
aI3
aI3
aI3
aI3
aI0
aI0
aI0
aI0
aI0
aI0
aI0
aI0
aI0
aI0
aI0
aI0
aI0
aI0
aI0
aI0
aI0
aI0
aI3
aI3
aI2
aI2
aI2
aI2
aI2
aI2
aI2
aI2
aI2
aI2
aI2
aI2
aI2
aI2
aI2
aI2
aI2
aI2
aI2
aI2
aI2
aI2
aI2
aI2
aI2
aI2
aI2
aI2
aI2
aI2
aI2
aI2
aI2
aI2
aI2
aI2
aI2
aI2
aI2
aI2
aI2
aI2
aI2
aI2
aI2
aI3
aI3
aI0
aI0
aI0
aI0
aI0
aI0
aI0
aI0
aI0
aI0
aI0
aI0
aI0
aI0
aI0
aI0
aI0
aI0
aI0
aI0
aI0
aI0
aI0
aI0
aI0
aI0
aI0
aI0
aI0
aI0
aI0
aI0
aI0
aI0
aI0
aI0
aI0
aI0
aI0
aI0
aI0
aI0
aI0
aI0
aI0
aI3
aI3
aI3
aI2
aI2
aI2
aI2
aI2
aI2
aI3
aI3
aI3
aI3
aI2
aI2
aI2
aI1
aI2
aI1
aI1
aI1
aI1
aI2
aI2
aI2
aI2
aI2
aI3
aI3
aI3
aI3
aI3
aI2
aI2
aI1
aI1
aI1
aI1
aI1
aI2
aI2
aI2
aI2
aI3
aI3
aI3
aI3
aI3
aI2
aI2
aI2
aI2
aI2
aI2
aI2
aI2
aI2
aI2
aI2
aI2
aI2
aI2
aI3
aI3
aI3
aI2
aI2
aI3
aI3
aI3
aI2
aI3
aI2
aI2
aI2
aI3
aI3
aI3
aI0
aI3
aI3
aI3
aI2
aI3
aI3
aI0
aI0
aI0
aI0
aI3
aI3
aI3
aI3
aI2
aI3
aI2
aI2
aI3
aI0
aI3
aI3
aI3
aI3
aI2
aI1
aI2
aI2
asg5
I376
sa(dp196
g3
(lp197
I1
aI2
aI2
aI2
aI2
aI2
aI2
aI2
aI1
aI1
aI1
aI1
aI1
aI1
aI1
aI1
aI1
aI0
aI0
aI0
aI3
aI0
aI3
aI0
aI3
aI0
aI3
aI0
aI3
aI0
aI0
aI3
aI0
aI3
aI0
aI0
aI0
aI0
aI0
aI0
aI1
aI1
aI1
aI0
aI0
aI0
aI0
aI0
aI1
aI1
aI1
aI1
aI1
aI1
aI1
aI1
aI0
aI0
aI0
aI0
aI0
aI0
aI0
aI0
aI0
aI1
aI1
aI1
aI1
aI1
aI1
aI1
aI1
aI1
aI0
aI0
aI1
aI0
aI0
aI0
aI0
aI0
aI0
aI0
aI0
aI1
aI1
aI1
aI1
aI1
aI1
aI1
aI1
aI0
aI0
aI0
aI0
aI0
aI0
aI0
aI0
aI0
aI0
aI0
aI0
aI0
aI0
aI0
aI0
aI0
aI0
aI0
aI0
aI0
aI0
aI0
aI0
aI0
aI0
aI0
aI0
aI0
aI0
aI0
aI0
aI0
aI0
aI0
aI0
aI0
aI0
aI3
aI3
aI2
aI2
aI2
aI2
aI2
aI2
aI2
aI2
aI2
aI2
aI2
aI2
aI2
aI2
aI2
aI2
aI2
aI2
aI3
aI3
aI3
aI3
aI3
aI3
aI0
aI0
aI0
aI0
aI0
aI0
aI0
aI0
aI0
aI0
aI0
aI0
aI0
aI0
aI0
aI0
aI0
aI0
aI3
aI3
aI2
aI2
aI2
aI2
aI2
aI2
aI2
aI2
aI2
aI2
aI2
aI2
aI2
aI2
aI2
aI2
aI2
aI2
aI2
aI2
aI2
aI2
aI2
aI2
aI2
aI2
aI2
aI2
aI2
aI2
aI2
aI2
aI2
aI2
aI2
aI2
aI2
aI2
aI2
aI2
aI2
aI2
aI2
aI2
aI2
aI3
aI3
aI0
aI0
aI0
aI0
aI0
aI0
aI0
aI0
aI0
aI0
aI0
aI0
aI0
aI0
aI0
aI0
aI0
aI0
aI0
aI0
aI0
aI0
aI0
aI0
aI0
aI0
aI0
aI0
aI0
aI0
aI0
aI0
aI0
aI0
aI0
aI0
aI0
aI0
aI0
aI0
aI0
aI0
aI0
aI0
aI0
aI3
aI3
aI3
aI2
aI2
aI2
aI2
aI2
aI2
aI3
aI3
aI3
aI3
aI2
aI2
aI2
aI1
aI2
aI1
aI1
aI1
aI1
aI2
aI2
aI2
aI2
aI2
aI3
aI3
aI3
aI3
aI3
aI2
aI2
aI1
aI2
aI3
aI0
aI1
aI1
aI1
aI1
aI1
aI2
aI2
aI2
aI2
aI3
aI3
aI3
aI3
aI3
aI2
aI2
aI2
aI2
aI2
aI2
aI2
aI2
aI2
aI2
aI2
aI2
aI2
aI2
aI3
aI3
aI0
aI3
aI2
aI2
aI2
aI3
aI3
aI3
aI0
aI3
aI2
aI2
aI1
aI2
aI2
aI3
aI0
aI3
aI3
aI0
aI3
aI3
aI0
aI1
aI1
aI1
aI0
aI3
aI3
aI3
aI3
aI3
aI2
aI3
aI3
aI3
aI3
aI3
aI3
aI0
aI3
aI0
aI3
aI3
aI2
aI3
aI2
aI3
aI2
aI2
aI2
aI3
aI0
aI3
aI3
aI0
aI3
aI2
aI2
aI3
aI2
aI2
aI1
aI2
aI3
aI3
aI2
aI3
aI3
aI2
aI3
aI3
aI2
aI2
aI3
aI3
aI3
aI2
aI2
aI2
aI2
aI2
aI2
aI2
aI1
aI2
aI2
aI2
aI3
aI3
aI2
aI3
aI2
aI2
aI2
aI3
aI3
aI2
aI2
aI2
aI2
aI2
aI2
aI3
aI3
aI0
aI1
aI2
aI0
aI1
aI0
aI0
aI0
aI2
aI0
aI0
aI2
aI2
aI2
aI0
aI2
aI2
aI2
aI2
aI1
aI2
aI1
aI2
aI3
aI2
aI2
aI1
aI2
aI2
aI1
aI2
aI3
aI3
asg5
I475
sa(dp198
g3
(lp199
I1
aI2
aI2
aI2
aI2
aI2
aI2
aI2
aI1
aI1
aI1
aI1
aI1
aI1
aI1
aI1
aI1
aI0
aI0
aI0
aI3
aI0
aI3
aI0
aI3
aI0
aI3
aI0
aI3
aI0
aI0
aI3
aI0
aI3
aI0
aI0
aI0
aI0
aI0
aI0
aI1
aI1
aI1
aI0
aI0
aI0
aI0
aI0
aI1
aI1
aI1
aI1
aI1
aI1
aI1
aI1
aI0
aI0
aI0
aI0
aI0
aI0
aI0
aI0
aI0
asg5
I65
sa(dp200
g3
(lp201
I1
aI2
aI2
aI2
aI2
aI2
aI2
aI2
aI1
aI1
aI1
aI1
aI1
aI1
aI1
aI1
aI1
aI0
aI0
aI0
aI3
aI0
aI3
aI0
aI3
aI0
aI3
aI0
aI3
aI0
aI0
aI0
aI3
aI2
aI3
aI0
aI0
aI0
aI0
aI0
aI0
aI0
aI1
aI1
aI1
aI0
aI0
aI0
aI0
aI0
aI1
aI1
aI1
aI1
aI1
aI1
aI1
aI1
aI0
aI0
aI0
aI0
aI0
aI0
aI0
aI0
aI0
aI1
aI1
aI1
aI1
aI1
aI1
aI1
aI1
aI1
aI0
aI0
aI1
aI0
aI0
aI0
aI0
aI0
aI0
aI0
aI0
aI1
aI1
aI1
aI1
aI1
aI1
aI1
aI1
aI0
aI0
aI0
aI0
aI0
aI0
aI0
aI0
aI0
aI0
aI0
aI0
aI0
aI0
aI0
aI0
aI0
aI0
aI0
aI0
aI0
aI0
aI0
aI0
aI0
aI0
aI0
aI0
aI0
aI0
aI0
aI0
aI0
aI0
aI0
aI0
aI0
aI0
aI3
aI3
aI2
aI2
aI2
aI2
aI2
aI2
aI2
aI2
aI2
aI2
aI2
aI2
aI2
aI2
aI2
aI2
aI2
aI2
aI3
aI3
aI3
aI3
aI3
aI3
aI0
aI0
aI0
aI0
aI0
aI0
aI0
aI0
aI0
aI0
aI0
aI0
aI0
aI0
aI0
aI0
aI0
aI0
aI3
aI3
aI2
aI2
aI2
aI2
aI2
aI2
aI2
aI2
aI2
aI2
aI2
aI2
aI2
aI2
aI2
aI2
aI2
aI2
aI2
aI2
aI2
aI2
aI2
aI2
aI2
aI2
aI2
aI2
aI2
aI2
aI2
aI2
aI2
aI2
aI2
aI2
aI2
aI2
aI2
aI2
aI2
aI2
aI2
aI2
aI2
aI3
aI3
aI0
aI0
aI0
aI0
aI0
aI0
aI0
aI0
aI0
aI0
aI0
aI0
aI0
aI0
aI0
aI0
aI0
aI0
aI0
aI0
aI0
aI0
aI0
aI0
aI0
aI0
aI0
aI0
aI0
aI0
aI0
aI0
aI0
aI0
aI0
aI0
aI0
aI0
aI0
aI0
aI0
aI0
aI0
aI0
aI0
aI3
aI3
aI3
aI2
aI2
aI2
aI2
aI2
aI2
aI3
aI3
aI3
aI3
aI2
aI2
aI2
aI1
aI2
aI1
aI1
aI1
aI1
aI2
aI2
aI2
aI2
aI2
aI3
aI3
aI3
aI3
aI3
aI2
aI2
aI1
aI1
aI1
aI1
aI1
aI2
aI2
aI2
aI2
aI3
aI3
aI3
aI3
aI3
aI2
aI2
aI2
aI2
aI2
aI2
aI2
aI2
aI2
aI2
aI2
aI2
aI2
aI2
aI3
aI3
aI3
aI2
aI2
aI3
aI3
aI2
aI3
aI2
aI3
aI3
aI2
aI1
aI1
aI2
aI3
aI3
aI3
aI3
aI0
aI3
aI2
aI3
aI0
aI3
aI0
aI3
aI3
aI2
aI2
aI1
aI0
aI0
aI0
aI0
aI3
aI2
aI2
aI0
aI0
aI3
aI3
aI3
aI3
aI3
aI0
aI0
aI3
aI3
aI0
aI1
aI0
aI0
asg5
I387
sag86
a(dp202
S'trail'
p203
(lp204
I1
aI2
aI2
aI2
aI2
aI2
aI2
aI2
aI1
aI1
aI1
aI1
aI1
aI1
aI1
aI1
aI1
aI0
aI0
aI0
aI3
aI0
aI3
aI0
aI3
aI0
aI3
aI0
aI3
aI0
aI0
aI3
aI0
aI3
aI0
aI0
aI0
aI0
aI0
aI0
aI1
aI1
aI1
aI0
aI0
aI0
aI0
aI0
aI1
aI1
aI1
aI1
aI1
aI1
aI1
aI1
aI0
aI0
aI0
aI0
aI0
aI0
aI0
aI0
aI0
aI1
aI1
aI1
aI1
aI1
aI1
aI1
aI1
aI1
aI0
aI0
aI1
aI0
aI0
aI0
aI0
aI0
aI0
aI0
aI0
aI1
aI1
aI1
aI1
aI1
aI1
aI1
aI1
aI0
aI0
aI0
aI0
aI0
aI0
aI0
aI0
aI0
aI0
aI0
aI0
aI0
aI0
aI0
aI0
aI0
aI0
aI0
aI0
aI0
aI0
aI0
aI0
aI0
aI0
aI0
aI0
aI0
aI0
aI0
aI0
aI0
aI0
aI0
aI0
aI0
aI0
aI3
aI3
aI3
aI3
aI3
aI3
aI3
aI3
aI3
aI3
aI2
aI2
aI2
aI2
aI2
aI2
aI2
aI2
aI2
aI2
aI2
aI2
aI2
aI2
aI2
aI2
aI2
aI2
aI2
aI2
aI2
aI2
aI2
aI2
aI2
aI2
aI2
aI2
aI2
aI2
aI2
aI2
aI2
aI2
aI2
aI2
aI2
aI2
aI2
aI2
aI2
aI2
aI2
aI2
aI2
aI3
aI3
aI0
aI0
aI0
aI0
aI0
aI0
aI0
aI0
aI0
aI0
aI0
aI0
aI0
aI0
aI0
aI0
aI0
aI0
aI0
aI0
aI0
aI0
aI0
aI0
aI0
aI0
aI0
aI0
aI0
aI0
aI0
aI0
aI0
aI0
aI0
aI0
aI0
aI0
aI0
aI0
aI0
aI0
aI0
aI0
aI0
aI3
aI3
aI3
aI2
aI2
aI2
aI2
aI2
aI2
aI3
aI3
aI3
aI3
aI2
aI2
aI2
aI2
aI1
aI1
aI0
aI1
aI2
aI1
aI0
aI1
aI2
aI2
aI2
aI2
aI2
aI2
aI3
aI3
aI3
aI3
aI3
aI2
aI2
aI2
aI1
aI0
aI1
aI2
aI1
aI1
aI0
aI1
aI2
aI2
aI2
aI2
aI3
aI3
aI3
aI3
aI3
aI2
aI2
aI2
aI2
aI2
aI2
aI2
aI2
aI2
aI2
aI2
aI2
aI2
aI2
aI3
aI3
aI3
aI2
aI2
aI3
aI3
aI0
aI0
aI3
aI2
aI2
aI2
aI1
aI2
aI2
aI3
aI2
aI3
aI3
aI3
aI3
aI0
aI1
aI1
aI1
aI0
aI0
aI0
aI3
aI3
aI0
aI3
aI0
aI3
aI2
aI2
aI1
aI2
aI3
aI2
aI3
aI0
aI3
aI0
aI3
aI3
aI3
aI3
aI3
aI3
aI2
aI3
aI2
aI2
aI3
aI2
aI1
aI2
aI3
aI3
aI2
aI1
aI2
aI3
aI3
aI0
aI3
aI2
aI3
aI3
aI3
aI0
aI3
aI3
aI3
aI2
aI3
aI3
aI2
aI3
aI3
aI2
aI2
aI3
aI3
aI3
aI2
aI2
aI2
aI2
aI2
aI2
aI2
aI1
aI2
aI2
aI2
aI3
aI3
aI2
aI3
aI2
aI2
aI2
aI3
aI3
aI2
aI2
aI2
aI2
aI2
aI2
aI3
aI1
aI2
aI1
aI3
aI0
aI2
aI0
aI2
aI1
aI3
aI0
aI0
aI2
aI0
aI0
aI0
aI2
aI2
aI3
aI1
aI2
aI2
aI1
aI2
aI2
aI0
aI0
aI2
aI2
aI0
aI1
aI3
aI2
aI2
aI0
aI0
aI0
aI3
aI0
aI2
aI1
aI2
aI2
aI0
aI0
aI3
aI1
aI2
aI0
aI2
aI2
aI0
aI0
aI2
aI2
aI1
aI3
aI0
aI0
aI2
aI1
aI2
aI3
aI2
aI0
aI1
aI3
aI2
aI0
aI0
aI0
aI3
aI1
aI2
aI0
aI2
aI0
aI3
aI0
aI2
aI0
aI0
aI0
aI2
aI2
aI0
aI2
aI0
aI0
aI2
aI0
aI2
aI3
aI1
aI2
aI2
aI1
aI3
aI1
aI3
aI0
aI2
aI1
aI3
aI1
aI3
aI1
aI3
aI0
aI2
aI0
aI3
aI1
aI3
aI1
aI2
aI0
aI0
aI2
aI0
aI2
aI2
aI1
aI3
aI0
aI3
aI1
aI3
aI1
aI0
aI0
aI2
aI2
aI2
aI1
aI3
aI1
aI2
aI0
aI2
aI2
aI0
aI0
aI2
aI2
aI2
aI2
aI1
aI2
aI0
aI3
aI0
aI2
aI0
aI2
aI0
aI2
aI1
aI2
aI0
aI3
aI0
aI0
aI0
aI1
aI3
aI2
aI2
aI0
aI2
aI2
aI0
aI0
aI2
aI0
aI2
aI0
aI2
aI2
aI0
aI2
aI0
aI0
aI2
aI2
aI0
aI0
aI0
aI0
aI3
aI1
aI3
aI0
aI0
aI2
aI0
aI2
aI2
aI0
aI2
aI0
aI0
aI0
aI2
aI2
aI3
aI3
aI3
aI3
aI3
aI0
aI3
aI0
aI1
aI0
aI0
aI1
aI1
aI0
aI0
aI0
aI0
aI0
aI1
aI1
aI0
aI1
aI0
aI0
aI3
aI3
aI2
aI3
aI3
aI2
aI3
aI2
aI3
aI2
aI3
aI2
aI3
aI2
aI2
aI2
aI3
aI0
aI0
aI3
aI3
aI0
aI1
aI0
aI3
aI2
aI2
aI0
aI0
aI1
aI0
aI0
aI3
aI0
aI0
aI0
aI0
aI0
aI0
aI0
aI0
aI1
aI1
aI2
aI1
aI1
aI1
aI1
aI1
aI1
aI1
aI0
aI0
aI3
aI3
aI3
aI3
aI0
aI0
aI0
aI1
aI0
aI1
aI1
aI2
aI1
aI2
aI1
aI1
aI0
aI0
aI0
aI0
aI3
aI3
aI3
aI3
aI3
aI3
aI3
aI3
aI3
aI3
aI3
aI0
aI3
aI0
aI0
aI0
aI1
aI1
aI2
aI1
aI2
aI1
aI1
aI0
aI1
aI1
aI1
aI0
aI0
aI3
aI3
aI0
aI3
aI3
aI3
aI0
aI0
aI1
aI1
aI0
aI0
aI3
aI3
aI3
aI3
aI3
aI0
aI0
aI0
aI1
aI1
aI1
aI1
aI1
aI0
aI0
aI3
aI3
aI3
aI3
aI3
aI0
aI0
aI1
aI1
aI1
aI1
aI1
aI0
aI0
aI3
aI3
aI3
aI3
aI3
aI0
aI0
aI1
aI1
aI1
aI1
aI1
aI0
aI0
aI3
aI3
aI3
aI3
aI3
aI0
aI0
aI1
aI1
aI1
aI1
aI1
aI0
aI0
aI3
aI3
aI3
aI3
aI3
aI0
aI0
aI1
aI1
aI1
aI1
aI1
aI1
aI1
aI0
aI0
aI1
aI1
aI1
aI1
aI1
aI1
aI1
aI1
aI1
aI2
aI2
aI2
aI2
aI2
aI2
aI2
aI2
aI2
aI2
aI2
aI2
aI2
aI2
aI2
aI2
aI2
aI2
aI2
aI2
aI1
aI1
aI0
aI0
aI0
aI1
aI1
aI1
aI1
aI1
aI1
aI1
aI1
aI1
aI1
aI1
aI1
aI1
aI0
aI0
aI0
aI0
aI0
aI0
aI0
aI0
aI0
aI0
aI0
aI0
aI0
aI0
aI0
aI0
aI0
aI0
aI0
aI0
aI0
aI0
aI0
aI0
aI0
aI0
aI0
aI3
aI3
aI3
aI3
aI3
aI3
aI3
aI3
aI3
aI3
aI3
aI3
asS'length'
p205
I919
sa(dp206
g3
(lp207
I1
aI2
aI2
aI2
aI2
aI2
aI2
aI2
aI1
aI1
aI1
aI1
aI1
aI1
aI1
aI1
aI1
aI0
aI0
aI0
aI3
aI0
aI3
aI0
aI3
aI0
aI3
aI0
aI3
aI0
aI0
aI3
aI0
aI3
aI0
aI0
aI0
aI0
aI0
aI0
aI1
aI1
aI1
aI0
aI0
aI0
aI0
aI0
aI1
aI1
aI1
aI1
aI1
aI1
aI1
aI1
aI0
aI0
aI0
aI0
aI0
aI0
aI0
aI0
aI0
aI1
aI1
aI1
aI1
aI1
aI1
aI1
aI1
aI1
aI0
aI0
aI1
aI0
aI0
aI0
aI0
aI0
aI0
aI0
aI0
aI1
aI1
aI1
aI1
aI1
aI1
aI1
aI1
aI0
aI0
aI0
aI0
aI0
aI0
aI0
aI0
aI0
aI0
aI0
aI0
aI0
aI0
aI0
aI0
aI0
aI0
aI0
aI0
aI0
aI0
aI0
aI0
aI0
aI0
aI0
aI0
aI0
aI0
aI0
aI0
aI0
aI0
aI0
aI0
aI0
aI0
aI3
aI3
aI3
aI3
aI3
aI3
aI3
aI3
aI3
aI3
aI2
aI2
aI2
aI2
aI2
aI2
aI2
aI2
aI2
aI2
aI2
aI2
aI2
aI2
aI2
aI2
aI2
aI2
aI2
aI2
aI2
aI2
aI2
aI2
aI2
aI2
aI2
aI2
aI2
aI2
aI2
aI2
aI2
aI2
aI2
aI2
aI2
aI2
aI2
aI2
aI2
aI2
aI2
aI2
aI2
aI3
aI3
aI0
aI0
aI0
aI0
aI0
aI0
aI0
aI0
aI0
aI0
aI0
aI0
aI0
aI0
aI0
aI0
aI0
aI0
aI0
aI0
aI0
aI0
aI0
aI0
aI0
aI0
aI0
aI0
aI0
aI0
aI0
aI0
aI0
aI0
aI0
aI0
aI0
aI0
aI0
aI0
aI0
aI0
aI0
aI0
aI0
aI3
aI3
aI3
aI2
aI2
aI2
aI2
aI2
aI2
aI3
aI3
aI3
aI3
aI2
aI2
aI2
aI1
aI2
aI1
aI1
aI1
aI1
aI2
aI2
aI2
aI2
aI2
aI3
aI3
aI3
aI3
aI3
aI2
aI2
aI1
aI1
aI1
aI1
aI1
aI2
aI2
aI2
aI2
aI3
aI3
aI3
aI3
aI3
aI2
aI2
aI2
aI2
aI2
aI2
aI2
aI2
aI2
aI2
aI2
aI2
aI2
aI2
aI3
aI3
aI0
aI3
aI2
aI2
aI2
aI3
aI3
aI2
aI2
aI2
aI3
aI3
aI3
aI2
aI1
aI1
aI1
aI3
aI3
aI2
aI2
aI2
aI2
aI2
aI2
aI2
aI2
aI1
aI1
aI2
aI3
aI3
aI2
aI2
aI2
aI2
aI3
aI3
aI3
aI3
aI3
aI3
aI3
aI3
aI3
aI3
aI3
aI3
aI3
aI3
aI3
aI3
aI3
aI2
aI2
aI2
aI2
aI2
aI2
aI3
aI3
aI3
aI3
aI2
aI3
aI2
aI3
aI3
aI3
aI2
aI2
aI3
aI2
aI1
aI1
aI1
aI0
aI1
aI1
aI1
aI2
aI1
aI1
aI1
aI2
aI2
aI2
aI2
aI2
aI2
aI2
aI2
aI2
aI2
aI2
aI2
aI2
aI2
asg5
I395
saa(lp208
g6
ag22
ag59
ag90
ag101
ag134
ag161
ag184
a(dp209
g3
(lp210
sg5
I0
sa(dp211
g3
(lp212
I1
aI0
aI0
aI1
aI1
aI1
aI0
aI1
aI0
aI1
aI1
aI1
aI1
aI0
aI0
aI0
aI0
aI0
aI0
aI1
aI1
aI1
aI1
aI1
aI1
aI1
aI1
aI1
aI1
aI1
aI1
aI1
aI1
aI1
aI1
aI1
aI0
aI0
aI0
aI0
aI1
aI0
aI1
aI0
aI0
aI0
aI1
aI0
aI0
aI0
aI0
aI1
aI0
aI0
aI0
aI0
aI0
aI0
aI0
aI1
aI1
aI1
aI0
aI0
aI0
aI0
aI0
aI0
aI0
aI0
aI0
aI0
aI0
aI0
aI0
aI0
aI1
aI1
aI1
aI1
aI1
aI0
aI0
aI0
aI0
asg5
I85
sa(dp213
g3
(lp214
I1
aI0
aI0
aI1
aI1
aI1
aI0
aI1
aI0
aI1
aI1
aI1
aI1
aI0
aI0
aI0
aI0
aI0
aI0
aI1
aI1
aI1
aI1
aI1
aI1
aI1
aI1
aI1
aI1
aI1
aI1
aI1
aI1
aI1
aI1
aI1
aI0
aI0
aI0
aI0
aI1
aI1
aI0
aI3
aI3
aI0
aI0
aI0
aI0
aI0
aI0
aI0
aI0
aI3
aI0
aI0
aI0
aI3
aI0
aI3
asg5
I60
sa(dp215
g3
(lp216
I2
aI2
aI2
aI3
aI3
aI2
aI2
aI1
aI2
aI1
aI2
aI2
aI2
aI2
aI2
aI3
aI2
aI3
aI3
aI3
aI3
aI2
aI3
aI2
aI2
aI2
aI2
aI2
aI3
aI3
aI3
aI3
aI3
aI2
aI2
aI1
aI1
aI1
aI2
aI1
aI1
aI2
aI2
aI3
aI3
aI3
aI2
aI3
aI3
aI0
aI3
aI0
aI3
aI3
aI2
aI2
aI2
aI1
aI2
aI1
aI1
aI1
aI1
aI1
aI1
aI1
aI1
aI1
aI1
aI1
aI2
aI2
aI2
aI2
aI3
aI3
aI0
aI3
aI0
aI3
aI3
aI2
aI3
aI2
aI2
aI2
aI1
aI1
aI1
aI1
aI2
aI2
aI3
aI3
aI3
aI3
aI3
aI3
aI3
aI0
aI3
aI3
aI2
aI2
aI2
aI2
aI2
aI2
aI2
aI2
aI1
aI2
aI2
aI2
aI2
aI1
aI2
aI2
aI2
aI1
aI1
aI1
aI2
aI2
aI1
aI2
aI1
aI1
aI1
aI1
aI0
aI1
aI0
aI0
aI0
aI0
aI0
aI1
aI1
aI0
aI0
aI0
aI1
aI0
aI1
aI1
aI0
aI0
aI0
aI3
aI0
aI0
aI0
aI0
aI0
aI0
aI0
aI1
aI1
aI1
aI0
aI0
aI1
aI1
aI0
aI0
aI0
aI0
aI0
aI1
aI0
aI1
aI0
aI3
aI0
aI1
aI1
aI1
aI1
aI0
aI0
aI0
aI1
aI2
aI1
aI1
aI2
aI2
aI1
aI1
aI1
aI1
aI1
aI1
aI1
aI1
aI1
aI1
aI1
aI1
aI2
aI1
aI0
aI1
aI1
aI2
aI2
aI2
aI1
aI1
aI0
aI0
aI1
aI0
aI3
aI3
aI2
aI2
aI2
aI2
aI1
aI2
aI2
aI2
aI2
aI2
aI3
aI0
aI3
aI2
aI2
aI1
aI1
aI2
aI2
aI2
aI2
aI2
aI2
aI2
aI3
aI3
aI3
aI3
aI3
aI3
aI3
aI3
aI3
aI3
aI3
aI3
aI3
aI3
aI3
aI3
aI3
aI2
aI2
aI2
aI2
aI2
aI2
aI3
aI3
aI3
aI3
aI2
aI3
aI2
aI3
aI3
aI3
aI2
aI2
aI3
asg5
I276
sa(dp217
g3
(lp218
I1
aI0
aI0
aI1
aI1
aI1
aI0
aI1
aI0
aI1
aI1
aI1
aI1
aI0
aI0
aI0
aI0
aI0
aI0
aI1
aI1
aI1
aI1
aI1
aI1
aI1
aI1
aI1
aI1
aI1
aI1
aI1
aI1
aI1
aI1
aI1
aI0
aI0
aI0
aI0
aI0
aI0
aI0
aI0
aI0
aI0
aI0
aI0
aI0
aI3
aI0
aI0
aI0
aI0
aI3
aI3
aI3
aI3
aI3
aI3
aI3
aI3
aI3
aI3
aI3
aI3
aI3
aI2
aI1
aI2
aI3
aI2
aI3
aI0
aI3
aI0
aI0
aI3
aI0
aI1
aI1
aI2
aI2
aI2
aI3
aI3
aI2
aI2
aI2
asg5
I89
sa(dp219
g3
(lp220
I1
aI0
aI0
aI1
aI1
aI1
aI0
aI1
aI0
aI1
aI1
aI1
aI1
aI0
aI0
aI0
aI0
aI0
aI0
aI1
aI1
aI1
aI1
aI1
aI1
aI1
aI1
aI1
aI1
aI1
aI1
aI1
aI1
aI1
aI1
aI1
aI0
aI0
aI0
aI0
aI0
aI0
aI0
aI0
aI0
aI0
aI0
aI0
aI0
aI3
aI0
aI0
aI3
aI0
aI0
aI3
aI3
aI3
aI3
aI2
aI1
aI2
aI3
aI3
aI0
aI0
aI3
aI3
aI3
aI3
aI3
aI3
aI0
aI1
aI0
aI3
aI3
aI0
aI3
aI3
aI3
aI2
aI2
aI2
aI1
aI2
aI1
aI0
aI0
aI1
aI2
aI2
aI2
aI2
aI3
aI3
aI0
aI3
aI0
aI0
aI1
aI3
aI1
aI0
aI1
aI3
aI3
aI1
aI3
aI1
aI1
aI3
aI3
aI0
aI3
aI3
aI0
aI3
aI3
aI2
aI3
aI3
aI3
aI0
aI3
aI2
aI2
aI1
aI1
aI1
aI2
aI2
aI3
aI2
aI2
aI1
aI2
aI2
aI3
aI3
aI2
aI2
aI3
aI2
aI3
aI3
aI2
aI2
aI3
aI3
aI3
aI2
aI2
aI2
aI2
aI2
aI2
aI2
aI1
aI2
aI2
aI2
aI3
aI3
aI2
aI3
aI2
aI2
aI2
aI3
aI3
aI2
aI2
aI2
aI2
aI2
aI3
aI3
aI2
aI1
aI1
aI2
aI1
aI2
aI2
aI1
aI0
aI3
aI0
aI2
aI2
aI2
aI2
aI1
aI2
aI2
aI1
aI2
aI3
aI3
asg5
I200
sa(dp221
g3
(lp222
I1
aI0
aI0
aI1
aI1
aI1
aI0
aI1
aI0
aI1
aI1
aI1
aI1
aI0
aI0
aI0
aI0
aI0
aI0
aI1
aI1
aI1
aI1
aI1
aI1
aI1
aI1
aI1
aI1
aI1
aI1
aI1
aI1
aI1
aI1
aI1
aI0
aI0
aI0
aI0
aI0
aI1
aI1
aI0
aI0
aI0
aI1
aI0
aI0
aI0
aI0
aI1
aI0
aI0
aI0
aI0
aI0
aI0
aI0
aI1
aI1
aI1
aI0
aI0
aI0
aI0
aI0
aI0
aI0
aI0
aI0
aI0
aI0
aI0
aI0
aI0
aI1
aI1
aI1
aI1
aI1
aI0
aI0
aI0
aI0
aI3
aI3
aI3
aI2
aI3
aI0
aI3
aI0
aI0
aI1
aI1
aI1
aI1
aI1
aI0
aI0
aI0
aI0
aI0
aI3
aI3
aI3
aI3
aI0
aI3
aI0
aI0
aI0
aI1
aI1
aI1
aI1
aI0
aI0
aI0
aI0
aI0
aI0
aI1
aI1
aI1
aI2
aI2
aI2
aI2
aI2
aI2
aI2
aI2
aI2
aI2
aI2
aI2
aI2
aI2
aI2
aI2
aI2
aI2
aI2
aI2
aI2
aI2
aI2
aI2
aI2
aI2
aI2
aI2
aI2
aI2
aI2
aI2
aI2
aI2
aI2
aI2
aI2
aI2
aI2
aI2
aI2
aI2
aI2
aI2
aI2
aI1
aI1
aI0
aI0
aI0
aI0
aI0
aI0
aI0
aI0
aI0
aI0
aI0
aI0
aI0
aI0
aI0
aI0
aI0
aI0
aI0
aI0
aI0
aI0
aI0
aI0
aI0
aI0
aI0
aI0
aI0
aI0
aI0
aI0
aI0
aI0
aI0
aI0
aI0
aI0
aI0
aI0
aI0
aI0
aI0
aI0
aI0
aI1
aI1
aI1
aI1
aI1
aI1
aI1
aI1
aI1
aI1
aI2
aI2
aI2
aI2
aI2
aI2
aI2
aI2
aI2
aI2
aI2
aI2
aI2
aI2
aI2
aI2
aI2
aI2
aI2
aI2
aI2
aI2
aI2
aI2
aI2
aI2
aI2
aI2
aI2
aI2
aI2
aI2
aI2
aI2
aI2
aI2
aI2
aI2
aI3
aI3
aI3
aI3
aI3
aI3
aI3
aI3
aI2
aI2
aI2
aI2
aI2
aI2
aI2
aI2
aI3
aI2
aI2
aI3
aI3
aI3
aI3
aI3
aI3
aI3
aI3
aI3
asg5
I294
sa(dp223
g3
(lp224
I1
aI0
aI0
aI1
aI1
aI1
aI0
aI1
aI0
aI1
aI1
aI1
aI1
aI0
aI0
aI0
aI0
aI0
aI0
aI1
aI1
aI1
aI1
aI1
aI1
aI1
aI1
aI1
aI1
aI1
aI1
aI1
aI1
aI1
aI1
aI1
aI0
aI0
aI0
aI0
aI0
aI0
aI0
aI0
aI0
aI0
aI0
aI0
aI0
aI3
aI3
aI0
aI1
aI1
aI0
aI3
aI3
aI0
aI0
aI1
aI1
aI2
aI3
aI2
aI2
aI0
aI3
aI3
aI0
aI0
aI3
aI3
aI3
aI2
aI2
aI3
aI0
aI0
aI3
aI3
aI3
aI3
aI3
aI0
aI3
aI0
aI1
aI0
aI3
aI0
aI0
aI3
asg5
I92
sa(dp225
S'trail'
p226
(lp227
I1
aI0
aI0
aI1
aI1
aI1
aI0
aI1
aI0
aI0
aI3
aI3
aI0
aI0
aI1
aI1
aI0
aI0
aI0
aI0
aI3
aI0
aI3
aI0
aI3
aI0
aI3
aI0
aI0
aI1
aI1
aI0
aI1
aI0
aI1
aI2
aI1
aI2
aI1
aI1
aI1
aI2
aI1
aI1
aI2
aI2
aI2
aI2
aI2
aI1
aI1
aI1
aI1
aI0
aI1
aI2
aI1
aI0
aI3
aI1
aI3
aI3
aI2
aI1
aI1
aI1
aI1
aI1
aI1
aI1
aI1
aI1
aI1
aI1
aI1
aI1
aI1
aI1
aI1
aI0
aI0
aI1
aI0
aI0
aI0
aI0
aI0
aI0
aI1
aI1
aI1
aI0
aI1
aI1
aI0
aI0
aI3
aI3
aI3
aI3
aI3
aI0
aI0
aI0
aI1
aI1
aI1
aI1
aI1
aI1
aI0
aI0
aI0
aI0
aI0
aI0
aI0
aI0
aI0
aI0
aI0
aI0
aI0
aI0
aI0
aI3
aI0
aI1
aI0
aI3
aI3
aI3
aI2
aI2
aI2
aI2
aI2
aI2
aI2
aI2
aI2
aI2
aI2
aI2
aI2
aI2
aI2
aI3
aI3
aI0
aI0
aI0
aI0
aI0
aI0
aI0
aI0
aI0
aI0
aI0
aI0
aI0
aI0
aI0
aI0
aI0
aI1
aI1
aI1
aI1
aI1
aI0
aI0
aI0
aI0
aI3
aI3
aI3
aI3
aI3
aI2
aI1
aI1
aI1
aI1
aI3
aI1
aI3
aI3
aI0
aI3
aI3
aI0
aI0
aI1
aI1
aI1
aI1
aI1
aI0
aI0
aI0
aI0
aI0
aI0
aI3
aI2
aI3
aI0
aI3
aI3
aI3
aI2
aI1
aI1
aI0
aI3
aI1
aI2
aI1
aI3
aI1
aI3
aI1
aI0
aI2
aI0
aI2
aI0
aI1
aI3
aI3
aI2
aI0
aI3
aI2
aI0
aI2
aI0
aI2
aI3
aI0
aI0
aI0
aI0
aI1
aI1
aI1
aI1
aI0
aI0
aI0
aI0
aI0
aI0
aI1
aI1
aI1
aI2
aI2
aI2
aI2
aI2
aI2
aI2
aI2
aI2
aI2
aI2
aI2
aI2
aI2
aI2
aI2
aI2
aI2
aI2
aI2
aI2
aI2
aI2
aI2
aI2
aI2
aI2
aI2
aI2
aI2
aI2
aI2
aI2
aI2
aI2
aI2
aI2
aI2
aI2
aI2
aI2
aI2
aI2
aI2
aI2
aI1
aI1
aI0
aI0
aI0
aI0
aI0
aI0
aI0
aI0
aI0
aI0
aI0
aI0
aI0
aI0
aI0
aI0
aI0
aI0
aI0
aI0
aI0
aI0
aI0
aI0
aI0
aI0
aI0
aI0
aI0
aI0
aI0
aI0
aI0
aI0
aI0
aI0
aI0
aI0
aI0
aI0
aI0
aI0
aI0
aI0
aI0
aI1
aI1
aI1
aI1
aI1
aI1
aI1
aI1
aI1
aI1
aI1
aI1
aI1
aI1
aI1
aI1
aI2
aI2
aI2
aI1
aI2
aI3
aI2
aI1
aI2
aI3
aI2
aI2
aI1
aI2
aI2
aI2
aI3
aI2
aI1
aI2
aI2
aI3
aI2
aI2
aI2
aI2
aI2
aI1
asS'length'
p228
I394
sa(dp229
g226
(lp230
I1
aI1
aI1
aI1
aI1
aI1
aI1
aI1
aI1
aI1
aI1
aI1
aI2
aI2
aI2
aI2
aI2
aI2
aI2
aI2
aI2
aI2
aI2
aI2
aI2
aI2
aI2
aI2
aI2
aI2
aI2
aI2
aI2
aI2
aI2
aI2
aI2
aI2
aI2
aI3
aI3
aI3
aI3
aI3
aI3
aI3
aI3
aI3
aI3
aI3
aI3
aI3
aI2
aI2
aI2
aI3
aI3
aI0
aI0
aI0
aI0
aI0
aI0
aI0
aI0
aI0
aI0
aI0
aI0
aI0
aI0
aI0
aI0
aI0
aI0
aI0
aI0
aI3
aI3
aI3
aI3
aI3
aI3
aI3
aI3
aI3
aI2
aI2
aI3
aI3
aI3
aI3
aI3
aI3
aI3
aI2
aI2
aI1
aI1
aI1
aI1
aI1
aI2
aI2
aI3
aI3
aI3
aI3
aI3
aI2
aI2
aI1
aI1
aI1
aI1
aI1
aI2
aI2
aI3
aI3
aI3
aI3
aI3
aI2
aI2
aI1
aI1
aI1
aI1
aI1
aI2
aI2
aI3
aI3
aI3
aI3
aI3
aI2
aI2
aI1
aI1
aI1
aI1
aI1
aI2
aI2
aI3
aI3
aI3
aI3
aI3
aI2
aI2
aI2
aI1
aI1
aI1
aI1
aI1
aI2
aI2
aI3
aI3
aI2
aI2
aI1
aI1
aI1
aI2
aI1
aI1
aI2
aI2
aI3
aI3
aI3
aI2
aI3
aI3
aI0
aI3
aI0
aI3
aI3
aI2
aI2
aI2
aI1
aI2
aI1
aI1
aI1
aI1
aI1
aI1
aI1
aI1
aI1
aI1
aI1
aI2
aI2
aI2
aI2
aI3
aI3
aI0
aI3
aI0
aI3
aI3
aI2
aI3
aI2
aI2
aI2
aI1
aI1
aI1
aI1
aI2
aI2
aI3
aI3
aI3
aI3
aI3
aI3
aI3
aI0
aI3
aI3
aI2
aI2
aI2
aI2
aI2
aI2
aI2
aI2
aI1
aI2
aI2
aI2
aI3
aI2
aI1
aI1
aI1
aI2
aI2
aI2
aI1
aI1
aI1
aI2
aI2
aI2
aI1
aI1
aI1
aI1
aI1
aI0
aI0
aI0
aI0
aI0
aI0
aI1
aI1
aI0
aI0
aI0
aI1
aI0
aI1
aI1
aI0
aI0
aI0
aI3
aI0
aI0
aI0
aI0
aI0
aI0
aI0
aI1
aI1
aI1
aI0
aI0
aI1
aI1
aI0
aI0
aI1
aI2
aI1
aI0
aI0
aI0
aI1
aI0
aI1
aI0
aI1
aI0
aI0
aI3
aI3
aI0
aI0
aI1
aI2
aI1
aI0
aI1
aI1
aI1
aI2
aI1
aI1
aI2
aI3
aI2
aI1
aI1
aI0
aI0
aI1
aI2
aI2
aI1
aI0
aI1
aI1
aI1
aI1
aI0
aI1
aI0
aI3
aI0
aI1
aI1
aI0
aI3
aI3
aI1
aI1
aI1
aI1
aI2
aI1
aI2
aI1
aI2
aI3
aI3
aI2
aI1
aI2
aI1
aI2
aI3
aI3
aI2
aI2
aI1
aI1
aI0
aI1
aI1
aI1
aI1
aI2
aI3
aI3
aI3
aI1
aI2
aI2
aI2
aI2
aI2
aI2
aI2
aI2
aI2
aI2
aI2
aI2
aI2
aI3
aI3
aI3
aI3
aI3
aI3
aI3
aI3
aI3
aI3
aI3
aI3
aI3
aI3
aI3
aI3
aI3
aI2
aI2
aI2
aI2
aI2
aI2
aI3
aI3
aI3
aI3
aI2
aI3
aI2
aI3
aI3
aI3
aI2
aI2
aI3
asg228
I432
sa(dp231
g3
(lp232
I0
aI0
aI0
aI0
aI0
aI0
aI0
aI0
aI0
aI0
aI0
aI0
aI0
aI0
aI3
aI3
aI3
aI0
aI3
aI3
aI3
aI2
aI3
aI3
aI0
aI3
asg5
I26
saa(lp233
g6
ag24
ag61
ag86
ag105
ag136
ag163
ag186
ag211
a(dp234
g3
(lp235
sg5
I0
sa(dp236
g3
(lp237
I1
aI1
aI1
aI1
aI1
aI1
aI1
aI0
aI0
aI1
aI1
aI1
aI0
aI0
aI0
aI0
aI0
aI0
aI0
aI0
aI0
aI0
aI0
aI0
aI0
aI0
aI1
aI1
aI1
aI1
aI1
aI0
aI0
aI0
aI0
asg5
I35
sa(dp238
S'trail'
p239
(lp240
I3
aI2
aI1
aI2
aI2
aI2
aI3
aI3
aI3
aI3
aI3
aI2
aI2
aI2
aI2
aI2
aI2
aI2
aI2
aI2
aI2
aI2
aI2
aI2
aI2
aI3
aI3
aI3
aI2
aI2
aI3
aI3
aI3
aI3
aI3
aI3
aI2
aI3
aI0
aI3
aI3
aI0
aI3
aI3
aI2
aI3
aI3
aI3
aI3
aI3
aI3
aI0
aI1
aI0
aI3
aI0
aI3
aI3
aI3
aI2
aI1
aI1
aI2
aI3
aI3
aI3
aI2
aI1
aI2
aI2
aI3
aI2
aI3
aI3
aI3
aI3
aI3
aI2
aI3
aI2
aI3
aI0
aI3
aI2
aI2
aI2
aI2
aI3
aI3
aI2
aI2
aI3
aI3
aI3
aI2
aI2
aI2
aI2
aI2
aI2
aI2
aI1
aI2
aI2
aI2
aI3
aI3
aI2
aI3
aI2
aI2
aI2
aI3
aI3
aI2
aI2
aI2
aI2
aI2
aI3
aI2
aI3
aI3
aI3
aI3
aI0
aI3
aI0
aI0
aI1
aI0
aI1
aI1
aI0
aI1
aI0
aI3
aI0
aI0
aI0
aI1
aI1
aI0
aI1
aI0
aI0
aI1
aI0
aI0
aI3
aI3
aI3
aI3
aI0
aI3
aI3
aI3
aI2
aI3
aI2
aI3
aI3
aI3
aI3
aI0
aI0
aI0
aI0
aI0
aI1
aI1
aI2
aI1
aI1
aI1
aI1
aI1
aI1
aI1
aI0
aI0
aI3
aI3
aI3
aI3
aI0
aI0
aI0
aI1
aI0
aI1
aI1
aI2
aI1
aI2
aI1
aI1
aI0
aI0
aI0
aI0
aI3
aI3
aI3
aI3
aI3
aI3
aI3
aI3
aI3
aI3
aI3
aI0
aI3
aI0
aI0
aI0
aI1
aI1
aI2
aI1
aI2
aI1
aI1
aI0
aI1
aI1
aI1
aI0
aI0
aI3
aI3
aI0
aI3
aI3
aI3
aI0
aI0
aI1
aI1
aI1
aI1
aI1
aI1
aI0
aI3
aI0
aI0
aI0
aI0
aI0
aI0
aI0
aI0
aI1
aI0
aI1
aI1
aI0
aI3
aI3
aI0
aI0
aI1
aI2
aI1
aI1
aI0
aI3
aI0
aI1
aI0
aI1
aI0
aI0
aI1
aI0
asS'length'
p241
I277
sa(dp242
g3
(lp243
I2
aI2
aI1
aI0
aI1
aI0
aI1
aI0
aI0
aI1
aI0
aI0
aI0
aI1
aI1
aI1
aI1
aI1
aI1
aI2
aI1
aI1
aI1
aI1
aI0
aI1
aI2
aI1
aI0
aI1
aI1
aI1
aI1
aI1
aI0
aI0
aI1
aI1
aI1
aI0
aI0
aI0
aI0
aI0
aI0
aI0
aI0
aI0
aI0
aI0
aI0
aI0
aI0
aI1
aI1
aI1
aI1
aI1
aI0
aI0
aI0
aI0
asg5
I62
sa(dp244
g239
(lp245
I2
aI2
aI2
aI2
aI3
aI3
aI3
aI3
aI3
aI2
aI2
aI2
aI2
aI2
aI2
aI2
aI2
aI2
aI2
aI2
aI2
aI2
aI2
aI3
aI3
aI3
aI2
aI2
aI3
aI3
aI3
aI3
aI3
aI3
aI3
aI3
aI3
aI0
aI3
aI3
aI2
aI3
aI3
aI3
aI3
aI3
aI2
aI3
aI2
aI3
aI0
aI3
aI2
aI3
aI0
aI3
aI2
aI3
aI2
aI2
aI2
aI2
aI3
aI2
aI3
aI3
aI3
aI0
aI1
aI0
aI0
aI3
aI3
aI3
aI3
aI2
aI2
aI2
aI2
aI3
aI3
aI2
aI2
aI3
aI3
aI3
aI2
aI2
aI2
aI2
aI2
aI2
aI2
aI1
aI2
aI2
aI2
aI3
aI3
aI2
aI3
aI2
aI2
aI2
aI3
aI3
aI2
aI2
aI2
aI2
aI2
aI3
aI3
aI2
aI1
aI1
aI2
aI1
aI2
aI2
aI2
aI2
aI1
aI2
aI2
aI2
aI3
asg241
I127
sa(dp246
g3
(lp247
I1
aI1
aI1
aI1
aI1
aI1
aI1
aI1
aI1
aI0
aI0
aI1
aI0
aI0
aI0
aI0
aI0
aI0
aI0
aI0
aI1
aI1
aI1
aI1
aI1
aI1
aI1
aI1
aI0
aI0
aI0
aI0
aI0
aI0
aI0
aI0
aI0
aI0
aI0
aI0
aI0
aI0
aI0
aI0
aI0
aI0
aI0
aI0
aI0
aI0
aI0
aI0
aI0
aI0
aI0
aI0
aI0
aI0
aI0
aI0
aI0
aI0
aI0
aI0
aI0
aI0
aI3
aI3
aI3
aI3
aI3
aI3
aI3
aI3
aI3
aI3
aI2
aI2
aI2
aI2
aI2
aI2
aI2
aI2
aI2
aI2
aI2
aI2
aI2
aI2
aI2
aI2
aI2
aI2
aI2
aI2
aI2
aI2
aI2
aI2
aI2
aI2
aI2
aI2
aI2
aI2
aI2
aI2
aI2
aI2
aI2
aI2
aI2
aI2
aI2
aI2
aI2
aI2
aI2
aI2
aI2
aI3
aI3
aI0
aI0
aI0
aI0
aI0
aI0
aI0
aI0
aI0
aI0
aI0
aI0
aI0
aI0
aI0
aI0
aI0
aI0
aI0
aI0
aI0
aI0
aI0
aI0
aI0
aI0
aI0
aI0
aI0
aI0
aI0
aI0
aI0
aI0
aI0
aI0
aI0
aI0
aI0
aI0
aI0
aI0
aI0
aI0
aI0
aI3
aI3
aI3
aI2
aI2
aI2
aI2
aI2
aI2
aI3
aI3
aI3
aI3
aI2
aI2
aI2
aI1
aI2
aI1
aI1
aI1
aI1
aI2
aI2
aI2
aI2
aI2
aI3
aI3
aI3
aI3
aI3
aI2
aI2
aI2
aI1
aI1
aI1
aI1
aI1
aI0
asg5
I209
sa(dp248
g239
(lp249
I2
aI2
aI2
aI2
aI3
aI3
aI3
aI3
aI3
aI2
aI2
aI2
aI2
aI2
aI2
aI2
aI2
aI2
aI2
aI2
aI2
aI2
aI2
aI3
aI3
aI3
aI2
aI2
aI3
aI3
aI2
aI3
aI3
aI3
aI3
aI0
aI3
aI3
aI3
aI0
aI3
aI3
aI2
aI3
aI3
aI3
aI3
aI3
aI3
aI0
aI0
aI1
aI2
aI3
aI3
aI0
aI0
aI1
aI1
aI0
aI3
aI3
aI0
asg241
I63
sa(dp250
g226
(lp251
I2
aI3
aI3
aI3
aI0
aI3
aI2
aI3
aI0
aI0
aI0
aI1
aI1
aI1
aI1
aI1
aI0
aI0
aI0
aI0
aI0
aI3
aI0
aI3
aI2
aI3
aI0
aI3
aI3
aI0
aI0
aI0
aI1
aI1
aI1
aI1
aI0
aI0
aI0
aI0
aI0
aI0
aI1
aI1
aI1
aI2
aI2
aI2
aI2
aI2
aI2
aI2
aI2
aI2
aI2
aI2
aI2
aI2
aI2
aI2
aI2
aI2
aI2
aI2
aI2
aI2
aI2
aI2
aI2
aI2
aI2
aI2
aI2
aI2
aI2
aI2
aI2
aI2
aI2
aI2
aI2
aI2
aI2
aI2
aI2
aI2
aI2
aI2
aI2
aI2
aI1
aI1
aI0
aI0
aI0
aI0
aI0
aI0
aI0
aI0
aI0
aI0
aI0
aI0
aI0
aI0
aI0
aI0
aI0
aI0
aI0
aI0
aI0
aI0
aI0
aI0
aI0
aI0
aI0
aI0
aI0
aI0
aI0
aI0
aI0
aI0
aI0
aI0
aI0
aI0
aI0
aI0
aI0
aI0
aI0
aI0
aI0
aI1
aI1
aI1
aI1
aI1
aI1
aI1
aI1
aI1
aI1
aI1
aI1
aI1
aI1
aI1
aI1
aI1
aI2
aI2
aI2
aI3
aI2
aI1
aI2
aI3
aI2
aI1
aI2
aI2
aI3
aI0
aI2
aI2
aI1
aI2
aI2
aI3
aI2
aI1
aI2
aI3
aI2
aI1
aI2
aI3
aI2
aI2
aI2
aI1
aI2
asg228
I187
sa(dp252
g3
(lp253
I1
aI1
aI1
aI1
aI1
aI1
aI1
aI1
aI1
aI1
aI1
aI1
aI2
aI2
aI2
aI2
aI2
aI2
aI2
aI2
aI2
aI2
aI2
aI2
aI2
aI2
aI2
aI2
aI2
aI2
aI2
aI2
aI2
aI2
aI2
aI2
aI2
aI2
aI2
aI3
aI3
aI3
aI3
aI3
aI3
aI3
aI3
aI3
aI3
aI3
aI3
aI3
aI2
aI2
aI2
aI3
aI3
aI0
aI0
aI0
aI0
aI0
aI0
aI0
aI0
aI0
aI0
aI0
aI0
aI0
aI0
aI0
aI0
aI0
aI0
aI0
aI0
aI3
aI3
aI3
aI3
aI3
aI3
aI3
aI3
aI3
aI2
aI2
aI1
aI1
aI1
aI1
aI2
aI2
aI2
aI1
aI2
aI3
aI2
aI1
aI1
aI0
aI1
aI2
aI2
aI2
aI3
aI2
aI1
aI2
aI2
aI2
aI2
aI2
aI3
aI2
aI3
aI3
aI3
aI2
aI2
aI3
aI3
aI2
aI2
aI2
aI2
aI2
aI3
aI3
aI3
aI3
aI3
aI2
aI2
aI1
aI1
aI1
aI2
aI1
aI1
aI2
aI2
aI3
aI3
aI3
aI2
aI3
aI3
aI0
aI3
aI0
aI3
aI3
aI2
aI2
aI2
aI1
aI2
aI1
aI1
aI1
aI1
aI1
aI1
aI1
aI1
aI1
aI1
aI1
aI2
aI2
aI2
aI2
aI3
aI3
aI0
aI3
aI0
aI3
aI3
aI2
aI3
aI3
aI3
aI2
aI1
aI1
aI2
aI2
aI1
aI1
aI1
aI1
aI2
aI2
aI3
aI3
aI3
aI3
aI3
aI3
aI3
aI0
aI3
aI3
aI2
aI2
aI2
aI2
aI2
aI1
aI1
aI1
aI1
aI0
aI1
aI0
aI1
aI1
aI1
aI2
aI1
aI1
aI1
aI1
aI2
aI2
aI3
aI2
aI2
aI3
aI2
aI3
aI3
aI2
aI2
aI2
aI1
aI2
aI3
aI2
aI3
aI3
aI2
aI3
aI2
aI2
aI1
aI2
aI1
aI1
aI1
aI1
aI0
aI1
aI0
aI0
aI0
aI0
aI0
aI1
aI1
aI0
aI0
aI0
aI1
aI0
aI1
aI1
aI0
aI0
aI0
aI3
aI0
aI0
aI0
aI0
aI0
aI0
aI0
aI1
aI1
aI1
aI0
aI0
aI1
aI1
aI0
aI0
aI0
aI0
aI0
aI0
aI0
aI1
aI2
aI1
aI1
aI2
aI1
aI0
aI1
aI1
aI1
aI2
aI2
aI2
aI1
aI1
aI1
aI1
aI0
aI0
aI3
aI3
aI0
aI0
aI1
aI1
aI0
aI1
aI2
aI1
aI0
aI1
aI1
aI1
aI1
aI2
aI2
aI1
aI1
aI0
aI0
aI0
aI1
aI2
aI2
aI2
aI2
aI1
aI0
aI0
aI0
aI1
aI0
aI1
aI0
aI0
aI3
aI0
aI1
aI1
aI2
aI1
aI2
aI2
aI1
aI1
aI2
aI1
aI1
aI0
aI0
aI1
aI1
aI1
aI0
aI0
aI0
aI0
aI0
aI0
aI0
aI0
aI0
aI0
aI0
aI0
aI0
aI0
aI1
aI1
aI1
aI1
aI1
aI0
aI0
aI0
aI0
asg5
I391
sa(dp254
g239
(lp255
I2
aI2
aI2
aI2
aI3
aI3
aI3
aI3
aI3
aI2
aI2
aI2
aI2
aI2
aI2
aI2
aI2
aI2
aI2
aI2
aI2
aI2
aI2
aI3
aI3
aI3
aI2
aI2
aI2
aI2
aI2
aI2
aI2
aI3
aI2
aI2
aI2
aI2
aI3
aI2
aI2
aI2
aI2
aI2
aI2
aI2
aI2
aI3
aI3
aI3
aI3
aI3
aI3
aI3
aI3
aI3
aI3
aI3
aI0
aI3
aI3
aI2
aI3
aI3
aI3
aI3
aI3
aI3
aI2
aI2
aI2
aI2
aI2
aI2
aI2
aI2
aI2
aI2
aI2
aI2
aI2
aI2
aI2
aI2
aI2
aI2
aI2
aI3
aI2
aI1
aI2
aI2
aI2
aI2
aI2
asg241
I95
saa(lp256
g6
ag28
ag63
ag86
ag107
ag138
ag86
ag190
ag213
ag236
a(dp257
g3
(lp258
sg5
I0
sa(dp259
g3
(lp260
I3
aI2
aI1
aI2
aI3
aI3
aI2
aI1
aI2
aI2
aI2
aI1
aI2
aI3
aI1
aI2
aI2
aI2
aI2
aI3
aI3
aI3
aI3
aI2
aI3
aI2
aI3
aI2
aI2
aI2
aI2
aI2
aI3
aI3
aI3
aI3
aI3
aI2
aI2
aI1
aI1
aI1
aI2
aI1
aI1
aI2
aI2
aI3
aI3
aI3
aI2
aI3
aI3
aI0
aI3
aI0
aI3
aI3
aI2
aI2
aI2
aI1
aI2
aI1
aI1
aI1
aI1
aI1
aI1
aI1
aI1
aI1
aI1
aI1
aI2
aI2
aI2
aI2
aI3
aI3
aI0
aI3
aI0
aI3
aI3
aI2
aI3
aI2
aI2
aI2
aI1
aI1
aI1
aI1
aI2
aI2
aI3
aI3
aI3
aI3
aI3
aI3
aI3
aI0
aI3
aI3
aI2
aI2
aI2
aI2
aI2
aI2
aI2
aI2
aI1
aI2
aI2
aI2
aI2
aI1
aI2
aI2
aI2
aI1
aI1
aI1
aI2
aI2
aI1
aI2
aI1
aI1
aI1
aI1
aI0
aI1
aI0
aI0
aI0
aI0
aI0
aI1
aI1
aI0
aI0
aI0
aI1
aI0
aI1
aI1
aI0
aI0
aI0
aI3
aI0
aI0
aI0
aI0
aI0
aI0
aI0
aI1
aI1
aI1
aI0
aI0
aI1
aI1
aI0
aI0
aI0
aI0
aI1
aI0
aI3
aI0
aI1
aI1
aI0
aI3
aI3
aI0
aI1
aI1
aI1
aI1
aI1
aI0
aI0
aI1
aI0
aI1
aI2
aI1
aI2
aI2
aI1
aI0
aI1
aI1
aI2
aI1
aI1
aI1
aI1
aI1
aI1
aI0
aI1
aI2
aI1
aI1
aI1
aI1
asg5
I214
sa(dp261
g3
(lp262
I1
aI0
aI0
aI1
aI1
aI1
aI0
aI0
aI0
aI1
aI1
aI1
aI1
aI1
aI2
aI1
aI0
aI1
aI2
aI1
aI1
aI1
aI0
asg5
I23
sa(dp263
g239
(lp264
I3
aI3
aI0
aI3
aI3
aI2
aI3
aI3
aI3
aI3
aI3
aI2
aI2
aI3
aI2
aI1
aI2
aI3
aI2
aI1
aI2
aI3
aI3
aI2
aI3
aI0
aI3
aI3
aI3
aI3
aI2
aI3
aI3
aI3
aI3
aI3
aI0
aI3
aI2
aI2
aI3
aI3
aI2
aI2
aI3
aI3
aI3
aI2
aI2
aI2
aI2
aI2
aI2
aI2
aI1
aI2
aI2
aI2
aI3
aI3
aI2
aI3
aI2
aI2
aI2
aI3
aI3
aI2
aI2
aI2
aI2
aI2
aI3
aI2
aI1
aI2
aI1
aI2
aI2
aI2
aI2
aI1
aI2
aI2
aI2
aI3
asg241
I86
sa(dp265
g3
(lp266
I1
aI1
aI1
aI1
aI1
aI1
aI1
aI1
aI1
aI0
aI0
aI1
aI0
aI0
aI0
aI0
aI0
aI0
aI0
aI0
aI1
aI1
aI1
aI1
aI1
aI1
aI1
aI1
aI0
aI0
aI0
aI0
aI0
aI0
aI0
aI0
aI0
aI0
aI0
aI0
aI0
aI0
aI0
aI0
aI0
aI0
aI0
aI0
aI0
aI0
aI0
aI0
aI0
aI0
aI0
aI0
aI0
aI0
aI0
aI0
aI0
aI0
aI0
aI0
aI0
aI0
aI3
aI3
aI3
aI3
aI3
aI3
aI3
aI3
aI3
aI3
aI2
aI2
aI2
aI2
aI2
aI2
aI2
aI2
aI2
aI2
aI2
aI2
aI2
aI2
aI2
aI2
aI2
aI2
aI2
aI2
aI2
aI2
aI2
aI2
aI2
aI2
aI2
aI2
aI2
aI2
aI2
aI2
aI2
aI2
aI2
aI2
aI2
aI2
aI2
aI2
aI2
aI2
aI2
aI2
aI2
aI3
aI3
aI0
aI0
aI0
aI0
aI0
aI0
aI0
aI0
aI0
aI0
aI0
aI0
aI0
aI0
aI0
aI0
aI0
aI0
aI0
aI0
aI0
aI0
aI0
aI0
aI0
aI0
aI0
aI0
aI0
aI0
aI0
aI0
aI0
aI0
aI0
aI0
aI0
aI0
aI0
aI0
aI0
aI0
aI0
aI0
aI0
aI3
aI3
aI3
aI2
aI2
aI2
aI2
aI2
aI2
aI3
aI3
aI3
aI3
aI2
aI2
aI2
aI1
aI2
aI1
aI1
aI1
aI1
aI2
aI2
aI2
aI2
aI2
aI3
aI3
aI3
aI3
aI3
aI2
aI2
aI2
aI1
aI1
aI1
aI0
aI1
aI2
aI1
aI0
aI2
aI2
aI2
aI2
aI3
aI3
aI3
aI3
aI3
aI2
aI2
aI2
aI2
aI2
aI2
aI2
aI2
aI2
aI2
aI2
aI2
aI2
aI2
aI3
aI3
aI0
aI3
aI2
aI2
aI2
aI3
aI3
aI3
aI3
aI3
aI3
aI3
asg5
I248
sa(dp267
g3
(lp268
I2
aI2
aI2
aI1
aI2
aI2
aI1
aI1
aI1
aI1
aI1
aI1
aI1
aI2
aI1
aI1
aI1
aI0
asg5
I18
sa(dp269
g3
(lp270
I2
aI3
aI2
aI2
aI2
aI2
aI2
aI2
aI2
aI2
aI1
aI2
aI2
aI2
aI2
aI2
aI2
aI2
aI2
aI2
aI3
aI2
aI3
aI3
aI3
aI3
aI3
aI3
aI0
aI0
aI0
aI0
aI0
aI0
aI0
aI0
aI0
aI0
aI0
aI0
aI0
aI0
aI0
aI0
aI0
aI0
aI0
aI0
aI0
aI0
aI0
aI0
aI0
aI0
aI0
aI0
aI0
aI0
aI0
aI0
aI0
aI0
aI0
aI0
aI0
aI0
aI3
aI3
aI3
aI3
aI3
aI3
aI3
aI3
aI3
aI3
aI2
aI2
aI2
aI2
aI2
aI2
aI2
aI2
aI2
aI2
aI2
aI2
aI2
aI2
aI2
aI2
aI2
aI2
aI2
aI2
aI2
aI2
aI2
aI2
aI2
aI2
aI2
aI2
aI2
aI2
aI2
aI2
aI2
aI2
aI2
aI2
aI2
aI2
aI2
aI2
aI2
aI2
aI2
aI2
aI2
aI3
aI3
aI0
aI0
aI0
aI0
aI0
aI0
aI0
aI0
aI0
aI0
aI0
aI0
aI0
aI0
aI0
aI0
aI0
aI0
aI0
aI0
aI0
aI0
aI0
aI0
aI0
aI0
aI0
aI0
aI0
aI0
aI0
aI0
aI0
aI0
aI0
aI0
aI0
aI0
aI0
aI0
aI0
aI0
aI0
aI0
aI0
aI3
aI3
aI3
aI2
aI2
aI2
aI2
aI2
aI2
aI3
aI3
aI3
aI3
aI2
aI2
aI2
aI2
aI1
aI0
aI1
aI2
aI1
aI1
aI1
aI2
aI2
aI2
aI2
aI2
aI3
aI3
aI3
aI3
aI3
aI2
aI2
aI1
aI1
aI1
aI1
aI1
aI2
aI2
aI2
aI2
aI3
aI3
aI3
aI3
aI3
aI2
aI2
aI2
aI2
aI2
aI2
aI2
aI2
aI2
aI2
aI2
aI2
aI2
aI2
aI3
aI3
aI3
aI2
aI2
aI3
aI3
aI2
aI3
aI3
aI3
aI0
aI3
aI3
asg5
I246
sa(dp271
g3
(lp272
I1
aI1
aI1
aI1
aI1
aI1
aI1
aI1
aI1
aI1
aI1
aI1
aI2
aI2
aI2
aI2
aI2
aI2
aI2
aI2
aI2
aI2
aI2
aI2
aI2
aI2
aI2
aI2
aI2
aI2
aI2
aI2
aI2
aI2
aI2
aI2
aI2
aI2
aI2
aI3
aI3
aI3
aI3
aI3
aI3
aI3
aI3
aI3
aI3
aI3
aI3
aI3
aI2
aI2
aI2
aI3
aI3
aI0
aI0
aI0
aI0
aI0
aI0
aI0
aI0
aI0
aI0
aI0
aI0
aI0
aI0
aI0
aI0
aI0
aI0
aI0
aI0
aI3
aI3
aI3
aI3
aI3
aI3
aI3
aI3
aI3
aI2
aI2
aI1
aI1
aI1
aI1
aI2
aI2
aI2
aI1
aI2
aI2
aI1
aI0
aI1
aI2
aI2
aI2
aI2
aI2
aI2
aI2
aI3
aI2
aI1
aI2
aI2
aI2
aI3
aI2
aI3
aI3
aI3
aI3
aI3
aI2
aI2
aI2
aI2
aI2
aI3
aI3
aI3
aI3
aI3
aI2
aI2
aI1
aI1
aI1
aI2
aI1
aI1
aI2
aI2
aI3
aI3
aI3
aI2
aI3
aI3
aI0
aI3
aI0
aI3
aI3
aI2
aI2
aI2
aI1
aI2
aI1
aI1
aI1
aI1
aI1
aI1
aI1
aI1
aI1
aI1
aI1
aI2
aI2
aI2
aI2
aI3
aI3
aI0
aI3
aI0
aI3
aI3
aI2
aI3
aI3
aI3
aI2
aI1
aI1
aI2
aI2
aI1
aI1
aI1
aI1
aI2
aI2
aI3
aI3
aI3
aI3
aI3
aI3
aI3
aI0
aI3
aI3
aI2
aI2
aI2
aI2
aI2
aI2
aI2
aI2
aI1
aI2
aI2
aI2
aI2
aI1
aI2
aI2
aI2
aI1
aI1
aI1
aI1
aI2
aI3
aI2
aI1
aI2
aI1
aI1
aI1
aI1
aI0
aI1
aI0
aI0
aI0
aI0
aI0
aI1
aI1
aI0
aI0
aI0
aI1
aI0
aI1
aI1
aI0
aI0
aI0
aI3
aI0
aI0
aI0
aI0
aI0
aI0
aI0
aI1
aI1
aI1
aI0
aI0
aI1
aI1
aI0
aI0
aI0
aI0
aI0
aI1
aI0
aI0
aI3
aI2
aI1
aI1
aI1
aI2
aI2
aI1
aI1
aI0
aI3
aI0
aI1
aI1
aI1
aI1
aI1
aI0
aI1
aI2
aI2
aI1
aI2
aI1
aI0
aI1
aI0
aI3
aI0
aI0
aI1
aI1
aI1
aI1
aI1
aI1
aI0
aI1
aI1
aI2
aI2
aI1
aI0
aI1
asg5
I320
sa(dp273
g3
(lp274
I0
aI0
aI0
aI0
aI0
aI0
aI0
aI0
aI0
aI0
aI0
aI0
aI0
aI0
aI3
aI3
aI3
aI0
aI3
aI3
aI3
aI2
aI3
aI3
aI0
aI0
aI0
aI1
aI1
aI1
aI0
aI1
aI0
aI1
aI1
aI1
aI1
aI0
aI0
aI0
aI0
aI0
aI0
aI1
aI1
aI1
aI1
aI1
aI1
aI1
aI1
aI1
aI1
aI1
aI1
aI1
aI1
aI1
aI1
aI1
aI1
aI1
aI0
aI0
aI0
aI0
aI0
aI3
aI2
aI3
aI0
aI0
aI0
aI0
aI0
aI0
aI0
aI0
aI0
aI0
aI0
aI3
aI0
aI3
aI3
aI0
asg5
I86
saa(lp275
g6
ag30
ag65
ag86
ag109
ag140
ag165
ag192
ag215
ag238
ag259
a(dp276
g3
(lp277
sg5
I0
sa(dp278
g3
(lp279
I2
aI3
aI2
aI1
aI2
aI3
aI2
aI2
aI3
aI0
aI0
aI0
aI3
aI2
aI2
aI2
aI3
aI0
aI3
aI2
aI2
aI2
aI2
aI2
aI3
aI2
aI2
aI2
aI2
aI2
aI2
aI2
aI2
aI2
aI3
aI3
aI3
aI3
aI3
aI2
aI2
aI1
aI1
aI1
aI2
aI1
aI1
aI2
aI2
aI3
aI3
aI3
aI2
aI3
aI3
aI0
aI3
aI0
aI3
aI3
aI2
aI2
aI2
aI1
aI2
aI1
aI1
aI1
aI1
aI1
aI1
aI1
aI1
aI1
aI1
aI1
aI2
aI2
aI2
aI2
aI3
aI3
aI0
aI3
aI0
aI3
aI3
aI2
aI3
aI2
aI2
aI2
aI1
aI1
aI1
aI1
aI2
aI2
aI3
aI3
aI3
aI3
aI3
aI3
aI3
aI0
aI3
aI3
aI2
aI2
aI2
aI2
aI2
aI2
aI2
aI2
aI1
aI2
aI2
aI2
aI2
aI1
aI2
aI2
aI2
aI1
aI1
aI1
aI2
aI2
aI1
aI2
aI1
aI1
aI1
aI1
aI0
aI1
aI0
aI0
aI0
aI0
aI0
aI1
aI1
aI0
aI0
aI0
aI1
aI0
aI1
aI1
aI0
aI0
aI0
aI3
aI0
aI0
aI0
aI0
aI0
aI0
aI0
aI1
aI1
aI1
aI0
aI0
aI1
aI1
aI0
aI0
aI1
aI2
aI1
aI1
aI1
aI0
aI1
aI0
aI0
aI1
aI2
aI2
aI2
aI1
aI1
aI0
aI0
asg5
I189
sa(dp280
g3
(lp281
I2
aI2
aI3
aI2
aI2
aI3
aI0
aI3
aI2
aI2
aI1
aI1
aI1
aI2
aI2
aI2
aI2
aI2
aI2
aI3
aI2
aI1
aI2
aI3
aI3
aI3
aI3
aI3
aI3
aI2
aI2
aI2
aI2
aI2
aI3
aI3
aI3
aI3
aI3
aI2
aI2
aI1
aI1
aI1
aI2
aI1
aI1
aI2
aI2
aI3
aI3
aI3
aI2
aI3
aI3
aI0
aI3
aI0
aI3
aI3
aI2
aI2
aI2
aI1
aI2
aI1
aI1
aI1
aI1
aI1
aI1
aI1
aI1
aI1
aI1
aI1
aI2
aI2
aI2
aI2
aI3
aI3
aI0
aI3
aI0
aI3
aI3
aI2
aI3
aI2
aI2
aI2
aI1
aI1
aI1
aI1
aI2
aI2
aI3
aI3
aI3
aI3
aI3
aI3
aI3
aI0
aI3
aI3
aI2
aI2
aI2
aI2
aI2
aI2
aI2
aI2
aI1
aI2
aI2
aI2
aI2
aI1
aI2
aI2
aI2
aI1
aI1
aI1
aI2
aI2
aI1
aI2
aI1
aI1
aI1
aI1
aI0
aI1
aI2
aI2
aI1
aI2
aI2
aI1
aI0
aI2
aI3
aI2
aI2
aI1
aI2
aI2
aI2
aI3
asg5
I154
sa(dp282
g3
(lp283
I3
aI3
aI3
aI2
aI2
aI2
aI1
aI0
aI0
aI1
aI1
aI2
aI3
aI2
aI2
aI2
aI1
aI2
aI2
aI2
aI3
aI2
aI1
aI2
aI2
aI3
aI2
aI2
aI3
aI3
aI3
aI3
aI3
aI2
aI2
aI2
aI2
aI2
aI3
aI3
aI3
aI3
aI3
aI2
aI2
aI1
aI1
aI1
aI2
aI1
aI1
aI2
aI2
aI3
aI3
aI3
aI2
aI3
aI3
aI0
aI3
aI0
aI3
aI3
aI2
aI2
aI2
aI1
aI2
aI1
aI1
aI1
aI1
aI1
aI1
aI1
aI1
aI1
aI1
aI1
aI2
aI2
aI2
aI2
aI3
aI3
aI0
aI3
aI0
aI3
aI3
aI2
aI3
aI2
aI2
aI2
aI1
aI1
aI1
aI1
aI2
aI2
aI3
aI3
aI3
aI3
aI3
aI3
aI3
aI0
aI3
aI3
aI2
aI2
aI2
aI2
aI2
aI2
aI2
aI2
aI1
aI2
aI2
aI2
aI2
aI1
aI2
aI2
aI2
aI1
aI1
aI1
aI2
aI2
aI1
aI2
aI1
aI1
aI1
aI1
aI0
aI1
aI0
aI0
aI0
aI0
aI0
aI1
aI1
aI0
aI0
aI0
aI1
aI0
aI1
aI1
aI0
aI0
aI0
aI3
aI0
aI0
aI0
aI0
aI0
aI0
aI0
aI1
aI1
aI1
aI0
aI0
aI1
aI1
aI0
aI0
aI1
aI1
aI1
aI0
aI1
aI2
aI1
aI2
aI1
aI0
aI0
aI0
aI3
aI3
aI3
aI0
aI0
aI0
aI1
aI0
aI1
aI0
aI0
aI0
aI1
aI2
aI1
aI1
aI2
aI1
aI0
aI1
aI2
aI1
aI2
aI1
aI1
aI1
aI1
aI1
aI1
aI0
aI0
aI0
aI0
aI1
aI1
aI1
aI2
aI2
aI3
aI3
aI2
aI1
aI2
aI3
aI2
aI1
aI2
aI1
aI0
aI0
aI1
aI1
aI1
aI1
aI2
aI3
aI2
aI1
aI2
aI1
aI1
aI1
aI0
aI0
aI3
aI2
aI3
aI0
aI0
aI1
aI0
aI1
aI2
aI1
aI1
aI0
aI0
aI1
aI1
aI1
aI0
aI0
aI0
aI0
aI0
aI0
aI0
aI0
aI0
aI0
aI0
aI0
aI0
aI0
aI1
aI1
aI1
aI1
aI1
aI0
aI0
aI0
aI0
aI3
aI3
aI2
aI3
aI3
aI0
aI3
aI0
aI0
aI1
aI1
aI1
aI1
aI1
aI0
aI0
aI0
aI0
aI0
aI3
aI3
aI3
aI3
aI0
aI3
aI0
aI0
aI0
aI1
aI1
aI1
aI1
aI0
aI0
aI0
aI0
aI0
aI0
aI1
aI1
aI1
aI2
aI2
aI2
aI2
aI2
aI2
aI2
aI2
aI2
aI2
aI2
aI2
aI2
aI2
aI2
aI2
aI2
aI2
aI2
aI2
aI2
aI2
aI2
aI2
aI2
aI2
aI2
aI2
aI2
aI2
aI2
aI2
aI2
aI2
aI2
aI2
aI2
aI2
aI2
aI2
aI2
aI2
aI2
aI2
aI2
aI1
aI1
aI0
aI0
aI0
aI0
aI0
aI0
aI0
aI0
aI0
aI0
aI0
aI0
aI0
aI0
aI0
aI0
aI0
aI0
aI0
aI0
aI0
aI0
aI0
aI0
aI0
aI0
aI0
aI0
aI0
aI0
aI0
aI0
aI0
aI0
aI0
aI0
aI0
aI0
aI0
aI0
aI0
aI0
aI0
aI0
aI0
aI1
aI1
aI1
aI1
aI1
aI1
aI1
aI1
aI1
aI1
aI2
aI2
aI2
aI2
aI2
aI2
aI2
aI2
aI2
aI2
aI2
aI2
aI2
aI2
aI2
aI2
aI2
aI2
aI2
aI2
aI2
aI2
aI2
aI2
aI2
aI2
aI2
aI2
aI2
aI2
aI2
aI2
aI2
aI2
aI2
aI2
aI2
aI2
aI3
aI3
aI3
aI3
aI3
aI3
aI3
aI3
aI2
aI2
aI2
aI2
aI2
aI2
aI2
aI2
aI3
aI2
aI2
aI3
aI3
aI3
aI3
aI3
aI3
aI3
aI3
aI3
asg5
I500
sa(dp284
g3
(lp285
I3
aI2
aI1
aI2
aI3
aI2
aI2
aI2
aI1
aI2
aI2
aI2
aI2
aI2
aI2
aI3
aI3
aI2
aI1
aI2
aI3
aI3
aI3
aI3
aI3
aI2
aI2
aI2
aI2
aI2
aI3
aI3
aI3
aI3
aI3
aI2
aI2
aI1
aI1
aI1
aI2
aI1
aI1
aI2
aI2
aI3
aI3
aI3
aI2
aI3
aI3
aI0
aI3
aI0
aI3
aI3
aI2
aI2
aI2
aI1
aI2
aI1
aI1
aI1
aI1
aI1
aI1
aI1
aI1
aI1
aI1
aI1
aI2
aI2
aI2
aI2
aI3
aI3
aI0
aI3
aI0
aI3
aI3
aI2
aI3
aI2
aI2
aI2
aI1
aI1
aI1
aI1
aI2
aI2
aI3
aI3
aI3
aI3
aI3
aI3
aI3
aI0
aI3
aI3
aI2
aI2
aI2
aI2
aI2
aI2
aI2
aI2
aI1
aI2
aI2
aI2
aI2
aI1
aI2
aI2
aI2
aI1
aI1
aI1
aI2
aI2
aI1
aI2
aI1
aI1
aI1
aI1
aI1
aI0
aI0
aI0
aI0
aI0
aI0
aI1
aI1
aI0
aI0
aI0
aI1
aI0
aI1
aI1
aI0
aI0
aI0
aI3
aI0
aI0
aI0
aI0
aI0
aI0
aI0
aI1
aI1
aI1
aI0
aI0
aI1
aI1
aI0
aI0
aI1
aI0
aI3
aI0
aI1
aI0
aI3
aI0
aI1
aI0
aI1
aI2
aI2
aI1
aI0
aI0
aI1
aI0
aI1
aI0
aI0
aI1
aI0
aI3
aI0
aI1
aI1
aI1
aI0
aI3
aI3
aI0
aI0
aI1
aI1
aI1
aI1
aI1
aI1
aI1
aI2
aI2
aI3
aI3
asg5
I212
sa(dp286
g3
(lp287
I2
aI3
aI2
aI2
aI2
aI2
aI2
aI2
aI2
aI2
aI1
aI2
aI2
aI2
aI2
aI2
aI2
aI2
aI2
aI2
aI3
aI2
aI3
aI3
aI3
aI3
aI3
aI3
aI0
aI0
aI0
aI0
aI0
aI0
aI0
aI0
aI0
aI0
aI0
aI0
aI0
aI0
aI0
aI0
aI0
aI0
aI0
aI0
aI0
aI0
aI0
aI0
aI0
aI0
aI0
aI0
aI0
aI0
aI0
aI0
aI0
aI0
aI0
aI0
aI0
aI0
aI3
aI3
aI3
aI3
aI3
aI3
aI3
aI3
aI3
aI3
aI2
aI2
aI2
aI2
aI2
aI2
aI2
aI2
aI2
aI2
aI2
aI2
aI2
aI2
aI2
aI2
aI2
aI2
aI2
aI2
aI2
aI2
aI2
aI2
aI2
aI2
aI2
aI2
aI2
aI2
aI2
aI2
aI2
aI2
aI2
aI2
aI2
aI2
aI2
aI2
aI2
aI2
aI2
aI2
aI2
aI3
aI3
aI0
aI0
aI0
aI0
aI0
aI0
aI0
aI0
aI0
aI0
aI0
aI0
aI0
aI0
aI0
aI0
aI0
aI0
aI0
aI0
aI0
aI0
aI0
aI0
aI0
aI0
aI0
aI0
aI0
aI0
aI0
aI0
aI0
aI0
aI0
aI0
aI0
aI0
aI0
aI0
aI0
aI0
aI0
aI0
aI0
aI3
aI3
aI3
aI2
aI2
aI2
aI2
aI2
aI2
aI3
aI3
aI3
aI3
aI2
aI2
aI2
aI2
aI1
aI0
aI1
aI2
aI1
aI1
aI1
aI2
aI2
aI3
aI2
aI1
aI2
aI2
aI3
aI3
aI3
aI3
aI3
aI2
aI2
aI1
aI1
aI1
aI1
aI1
aI2
aI2
aI2
aI2
aI3
aI3
aI3
aI3
aI3
aI2
aI2
aI2
aI2
aI2
aI2
aI2
aI2
aI2
aI2
aI2
aI2
aI2
aI2
aI3
aI3
aI3
aI2
aI2
aI3
aI3
aI0
aI3
aI2
aI3
aI0
aI0
aI1
aI1
aI0
aI3
aI3
aI3
aI0
aI3
aI3
aI2
aI1
aI2
aI1
aI2
aI2
aI3
aI2
aI3
aI0
aI0
aI3
aI0
aI0
aI3
aI2
aI2
aI2
aI3
aI2
aI2
aI2
aI1
aI1
aI2
aI3
aI3
aI3
aI3
aI0
aI1
aI0
aI3
aI0
aI0
aI3
aI3
aI3
aI3
aI0
aI0
aI3
aI0
aI0
aI3
aI0
aI3
aI2
aI2
aI3
aI0
aI3
aI0
aI1
aI0
aI0
aI3
aI2
aI3
aI2
aI2
aI3
aI2
aI1
aI1
aI2
aI1
aI1
aI1
aI0
aI3
aI3
aI1
aI2
aI2
aI2
aI1
aI0
aI1
aI2
aI2
aI2
aI3
aI0
aI3
aI2
aI3
aI3
aI2
aI2
aI3
aI3
aI2
aI1
aI2
aI3
aI3
aI0
aI0
aI0
aI3
aI2
aI2
aI3
aI3
aI3
aI2
aI1
aI2
aI3
aI3
aI2
aI3
aI3
aI2
aI2
aI3
aI3
aI3
aI2
aI2
aI2
aI2
aI2
aI2
aI2
aI1
aI2
aI2
aI2
aI3
aI3
aI2
aI3
aI2
aI2
aI2
aI3
aI3
aI2
aI2
aI2
aI2
aI2
aI2
aI3
aI0
aI3
aI2
aI3
aI3
aI3
aI0
aI3
aI0
aI0
aI3
aI3
aI3
aI0
aI0
aI0
aI3
aI0
aI0
aI0
aI0
aI3
aI0
aI0
aI0
aI0
aI0
aI0
aI0
aI0
aI1
aI1
aI2
aI1
aI1
aI1
aI1
aI1
aI1
aI1
aI0
aI0
aI3
aI3
aI3
aI3
aI0
aI0
aI0
aI3
aI3
aI2
aI2
aI3
aI3
aI0
aI3
aI0
aI0
aI1
aI1
aI1
aI3
aI1
aI2
aI0
aI3
aI3
aI1
aI1
aI3
aI3
aI1
aI1
aI2
aI2
aI1
aI3
aI0
aI2
aI0
aI2
aI0
aI0
aI2
aI1
aI1
aI1
aI0
aI1
aI1
aI2
aI1
aI2
aI1
aI1
aI0
aI0
aI0
aI0
aI3
aI3
aI3
aI3
aI3
aI3
aI3
aI3
aI3
aI3
aI3
aI0
aI3
aI0
aI0
aI0
aI1
aI1
aI2
aI1
aI2
aI1
aI1
aI0
aI1
aI1
aI1
aI0
aI0
aI3
aI3
aI0
aI3
aI3
aI3
aI0
aI0
aI1
aI1
aI1
aI1
aI1
aI0
aI0
aI0
aI0
aI0
aI0
aI0
aI0
aI0
aI0
aI1
aI0
aI1
aI1
aI1
aI1
aI0
aI3
aI0
aI0
aI0
aI1
aI0
aI3
aI0
aI1
aI0
aI1
asg5
I572
sa(dp288
g3
(lp289
I1
aI1
aI1
aI1
aI1
aI1
aI1
aI1
aI1
aI1
aI1
aI1
aI2
aI2
aI2
aI2
aI2
aI2
aI2
aI2
aI2
aI2
aI2
aI2
aI2
aI2
aI2
aI2
aI2
aI2
aI2
aI2
aI2
aI2
aI2
aI2
aI2
aI2
aI2
aI3
aI3
aI3
aI3
aI3
aI3
aI3
aI3
aI3
aI3
aI3
aI3
aI3
aI2
aI2
aI2
aI3
aI3
aI0
aI0
aI0
aI0
aI0
aI0
aI0
aI0
aI0
aI0
aI0
aI0
aI0
aI0
aI0
aI0
aI0
aI0
aI0
aI0
aI3
aI3
aI3
aI3
aI3
aI3
aI3
aI3
aI3
aI2
aI2
aI1
aI1
aI1
aI1
aI2
aI2
aI2
aI1
aI1
aI1
asg5
I98
sa(dp290
g3
(lp291
I0
aI0
aI0
aI0
aI0
aI0
aI0
aI0
aI0
aI0
aI0
aI0
aI0
aI0
aI0
aI0
aI0
aI0
aI0
aI0
aI0
aI0
aI0
aI0
aI0
aI1
aI1
aI1
aI1
aI1
aI1
aI1
aI1
aI1
aI1
aI1
aI1
aI1
aI1
aI1
aI1
aI1
aI1
aI1
aI0
aI0
aI0
aI0
aI0
aI3
aI3
aI0
aI0
aI0
aI0
aI0
aI0
aI0
aI0
aI1
aI0
aI3
aI0
aI3
aI2
aI2
aI3
aI0
aI0
aI0
aI3
aI0
aI1
aI0
aI0
aI0
aI1
aI2
aI1
aI1
aI1
aI2
aI2
aI2
aI2
aI2
aI2
aI0
aI0
aI3
aI0
aI3
aI0
aI1
aI0
aI3
aI3
aI2
aI2
aI2
aI3
aI3
aI3
aI3
aI2
aI3
aI3
aI2
aI1
aI1
aI1
aI1
aI0
aI3
aI0
aI0
aI0
aI3
aI0
aI1
aI0
aI1
aI0
aI0
aI1
aI1
aI1
aI2
aI1
aI1
aI0
aI3
aI3
aI3
aI3
aI1
aI2
aI0
aI2
aI0
aI1
aI3
aI2
aI3
aI3
aI3
aI3
aI3
aI3
aI0
aI3
aI2
aI2
aI1
aI2
aI1
aI2
aI2
aI2
aI3
aI3
aI0
aI0
aI0
aI2
aI1
aI2
aI0
aI3
aI3
aI3
aI3
aI3
aI0
aI0
aI0
aI3
aI0
aI3
aI3
aI3
aI3
aI3
aI2
aI3
aI3
aI2
aI1
aI1
aI1
aI1
aI1
aI2
aI1
aI0
aI1
aI2
aI2
aI2
aI1
aI2
aI3
aI3
aI2
aI3
aI3
aI3
aI3
aI2
aI1
aI2
aI3
aI2
aI1
aI2
aI3
aI3
aI3
aI3
aI0
aI0
aI0
aI0
aI0
aI0
aI0
aI0
aI0
aI3
aI2
aI2
aI3
aI2
aI2
aI3
aI0
aI0
aI0
aI3
aI0
aI0
aI1
aI2
aI1
aI2
aI3
aI2
aI3
aI2
aI2
aI2
aI2
aI2
aI2
aI2
aI2
aI3
aI3
aI2
aI2
aI3
aI3
aI3
aI2
aI2
aI2
aI2
aI2
aI2
aI2
aI1
aI2
aI2
aI2
aI3
aI3
aI2
aI3
aI2
aI2
aI2
aI3
aI3
aI2
aI2
aI2
aI2
aI2
aI2
aI3
aI3
aI3
aI3
aI3
aI0
aI0
aI0
aI3
aI3
aI3
aI3
aI0
aI1
aI0
aI3
aI0
aI3
aI0
aI0
aI0
aI0
aI3
aI0
aI0
aI0
aI0
aI0
aI0
aI0
aI0
aI1
aI1
aI2
aI1
aI1
aI1
aI1
aI1
aI1
aI1
aI0
aI0
aI3
aI3
aI3
aI3
aI0
aI0
aI3
aI0
aI1
aI1
aI0
aI1
aI1
aI2
aI1
aI2
aI1
aI1
aI0
aI0
aI0
aI0
aI3
aI3
aI3
aI3
aI3
aI3
aI3
aI3
aI3
aI3
aI3
aI0
aI3
aI0
aI0
aI0
aI1
aI1
aI2
aI1
aI2
aI1
aI1
aI0
aI1
aI1
aI1
aI0
aI0
aI3
aI3
aI0
aI3
aI3
aI3
aI0
aI0
aI1
aI1
aI1
aI1
aI1
aI0
aI0
aI0
aI0
aI0
aI0
aI1
aI0
aI3
aI0
aI0
aI1
aI1
aI2
aI2
aI1
aI0
aI1
aI2
aI1
aI2
aI2
aI3
aI3
aI3
aI3
aI3
aI1
aI0
aI1
aI1
aI1
aI0
aI1
aI1
aI0
aI0
aI0
aI3
aI3
aI2
aI1
aI2
aI1
aI2
aI2
aI2
aI3
aI3
aI1
aI3
aI1
aI3
aI3
aI3
aI1
aI3
aI1
aI3
aI3
aI3
aI1
aI1
aI0
aI0
aI3
aI0
aI3
aI0
aI0
aI1
aI0
aI0
aI0
aI3
aI0
aI0
aI1
aI1
aI0
aI1
aI1
aI1
aI0
aI0
aI1
asg5
I482
saa(lp292
g6
ag32
ag67
ag86
ag111
ag142
ag86
ag194
ag217
ag242
ag261
ag278
a(dp293
g3
(lp294
sg5
I0
sa(dp295
g3
(lp296
I0
aI1
aI0
aI0
aI3
aI0
aI0
aI0
aI0
aI3
aI0
aI0
aI0
aI0
aI0
aI0
aI0
aI1
aI1
aI0
aI0
aI0
aI1
aI0
aI1
aI1
aI0
aI0
aI0
aI3
aI0
aI0
aI0
aI0
aI0
aI0
aI0
aI1
aI1
aI1
aI0
aI0
aI1
aI1
aI0
aI0
aI1
aI1
aI1
aI1
aI1
aI1
aI1
aI0
aI1
asg5
I55
sa(dp297
g3
(lp298
I1
aI2
aI2
aI1
aI1
aI1
aI0
aI0
aI3
aI2
aI3
aI0
aI0
aI1
aI0
aI3
aI0
aI0
aI1
aI1
aI0
aI1
aI1
aI1
aI1
aI1
aI1
aI2
aI2
aI1
aI0
aI0
aI1
aI2
aI1
aI1
aI1
aI1
aI0
aI1
aI1
aI1
aI1
aI1
aI0
aI0
aI1
aI1
aI1
aI0
aI0
aI0
aI0
aI0
aI0
aI0
aI0
aI0
aI0
aI0
aI0
aI0
aI0
aI1
aI1
aI1
aI1
aI1
aI0
aI0
aI0
aI0
aI3
aI2
aI3
aI0
aI3
aI3
aI2
aI3
aI0
aI0
aI0
aI1
aI1
aI1
aI1
aI1
aI0
aI0
aI0
aI0
aI0
aI3
aI3
aI3
aI3
aI0
aI3
aI0
aI0
aI0
aI1
aI1
aI1
aI1
aI0
aI0
aI0
aI0
aI0
aI0
aI1
aI1
aI1
aI2
aI2
aI2
aI2
aI2
aI2
aI2
aI2
aI2
aI2
aI2
aI2
aI2
aI2
aI2
aI2
aI2
aI2
aI2
aI2
aI2
aI2
aI2
aI2
aI2
aI2
aI2
aI2
aI2
aI2
aI2
aI2
aI2
aI2
aI2
aI2
aI2
aI2
aI2
aI2
aI2
aI2
aI2
aI2
aI2
aI1
aI1
aI0
aI0
aI0
aI0
aI0
aI0
aI0
aI0
aI0
aI0
aI0
aI0
aI0
aI0
aI0
aI0
aI0
aI0
aI0
aI0
aI0
aI0
aI0
aI0
aI0
aI0
aI0
aI0
aI0
aI0
aI0
aI0
aI0
aI0
aI0
aI0
aI0
aI0
aI0
aI0
aI0
aI0
aI0
aI0
aI0
aI1
aI1
aI1
aI1
aI1
aI1
aI1
aI1
aI1
aI1
aI2
aI2
aI2
aI2
aI2
aI2
aI2
aI2
aI2
aI2
aI2
aI2
aI2
aI2
aI2
aI2
aI2
aI2
aI2
aI2
aI2
aI2
aI2
aI2
aI2
aI2
aI2
aI2
aI2
aI2
aI2
aI2
aI2
aI2
aI2
aI2
aI2
aI2
aI3
aI3
aI3
aI3
aI3
aI3
aI3
aI3
aI2
aI2
aI2
aI2
aI2
aI2
aI2
aI2
aI3
aI2
aI2
aI3
aI3
aI3
aI3
aI3
aI3
aI3
aI3
aI3
asg5
I283
sa(dp299
g3
(lp300
I0
aI0
aI1
aI0
aI0
aI0
aI1
aI1
aI0
aI1
aI1
aI0
aI0
aI0
aI0
aI3
aI3
asg5
I17
sa(dp301
g3
(lp302
I2
aI2
aI3
aI2
aI2
aI1
aI2
aI3
aI2
aI2
aI2
aI2
aI1
aI2
aI2
aI2
aI2
aI2
aI2
aI2
aI2
aI2
aI3
aI2
aI3
aI3
aI3
aI3
aI3
aI3
aI0
aI0
aI0
aI0
aI0
aI0
aI0
aI0
aI0
aI0
aI0
aI0
aI0
aI0
aI0
aI0
aI0
aI0
aI0
aI0
aI0
aI0
aI0
aI0
aI0
aI0
aI0
aI0
aI0
aI0
aI0
aI0
aI0
aI0
aI0
aI0
aI0
aI0
aI3
aI3
aI3
aI3
aI3
aI3
aI3
aI3
aI3
aI3
aI2
aI2
aI2
aI2
aI2
aI2
aI2
aI2
aI2
aI2
aI2
aI2
aI2
aI2
aI2
aI2
aI2
aI2
aI2
aI2
aI2
aI2
aI2
aI2
aI2
aI2
aI2
aI2
aI2
aI2
aI2
aI2
aI2
aI2
aI2
aI2
aI2
aI2
aI2
aI2
aI2
aI2
aI2
aI2
aI2
aI3
aI3
aI0
aI0
aI0
aI0
aI0
aI0
aI0
aI0
aI0
aI0
aI0
aI0
aI0
aI0
aI0
aI0
aI0
aI0
aI0
aI0
aI0
aI0
aI0
aI0
aI0
aI0
aI0
aI0
aI0
aI0
aI0
aI0
aI0
aI0
aI0
aI0
aI0
aI0
aI0
aI0
aI0
aI0
aI0
aI0
aI0
aI3
aI3
aI3
aI2
aI2
aI2
aI2
aI2
aI2
aI3
aI3
aI3
aI3
aI2
aI2
aI2
aI1
aI2
aI3
aI0
aI1
aI1
aI1
aI2
aI1
aI0
aI1
aI2
aI2
aI2
aI2
aI2
aI2
aI3
aI3
aI3
aI3
aI3
aI2
aI2
aI1
aI1
aI1
aI1
aI1
aI2
aI2
aI2
aI2
aI3
aI3
aI3
aI3
aI3
aI2
aI2
aI2
aI2
aI2
aI2
aI2
aI2
aI2
aI2
aI2
aI2
aI2
aI2
aI3
aI3
aI3
aI2
aI2
aI3
aI3
aI3
aI3
aI2
aI3
aI0
aI3
aI3
aI2
aI2
aI2
aI2
aI3
aI3
aI3
aI3
aI0
aI1
aI1
aI1
aI0
aI0
aI3
aI0
aI3
aI2
aI3
aI2
aI3
aI0
aI0
aI3
aI3
aI3
aI3
aI0
aI3
aI2
aI3
aI3
aI2
aI1
aI1
aI2
aI3
aI3
aI3
aI3
aI2
aI2
aI2
asg5
I295
sa(dp303
g3
(lp304
I1
aI1
aI1
aI1
aI1
aI1
aI1
aI1
aI1
aI1
aI1
aI1
aI2
aI2
aI2
aI2
aI2
aI2
aI2
aI2
aI2
aI2
aI2
aI2
aI2
aI2
aI2
aI2
aI2
aI2
aI2
aI2
aI2
aI2
aI2
aI2
aI2
aI2
aI2
aI3
aI3
aI3
aI3
aI3
aI3
aI3
aI3
aI3
aI3
aI3
aI3
aI3
aI2
aI2
aI2
aI3
aI3
aI0
aI0
aI0
aI0
aI0
aI0
aI0
aI0
aI0
aI0
aI0
aI0
aI0
aI0
aI0
aI0
aI0
aI0
aI0
aI0
aI3
aI3
aI3
aI3
aI3
aI3
aI3
aI3
aI3
aI2
aI2
aI1
aI1
aI1
aI1
aI2
aI2
aI2
aI1
aI1
aI1
aI2
aI2
aI2
aI2
aI2
aI2
aI2
aI2
aI3
aI2
aI1
aI2
aI2
aI3
aI2
aI1
aI2
aI3
aI3
aI3
aI3
aI3
aI3
aI2
aI2
aI2
aI2
aI2
aI3
aI3
aI3
aI3
aI3
aI2
aI2
aI1
aI1
aI1
aI2
aI1
aI1
aI2
aI2
aI3
aI3
aI3
aI2
aI3
aI3
aI0
aI3
aI0
aI3
aI3
aI2
aI2
aI2
aI1
aI2
aI1
aI1
aI1
aI1
aI1
aI1
aI1
aI1
aI1
aI1
aI1
aI2
aI2
aI2
aI2
aI3
aI3
aI0
aI3
aI0
aI3
aI3
aI2
aI3
aI2
aI2
aI2
aI1
aI1
aI1
aI1
aI2
aI2
aI3
aI3
aI3
aI3
aI3
aI3
aI3
aI0
aI3
aI3
aI2
aI2
aI2
aI2
aI2
aI2
aI2
aI2
aI1
aI2
aI2
aI2
aI2
aI1
aI2
aI2
aI2
aI1
aI1
aI1
aI1
aI2
aI3
aI2
aI1
aI2
aI1
aI1
aI1
aI1
aI0
aI1
aI0
aI0
aI0
aI0
aI0
aI1
aI1
aI0
aI0
aI0
aI1
aI0
aI1
aI1
aI0
aI0
aI0
aI3
aI0
aI0
aI0
aI0
aI0
aI0
aI0
aI1
aI1
aI1
aI0
aI0
aI1
aI1
aI0
aI0
aI0
aI0
aI0
aI1
aI1
aI0
aI1
aI2
aI2
aI2
aI2
aI3
aI2
aI1
aI1
aI1
aI1
aI1
aI1
aI0
aI0
asg5
I287
sa(dp305
g3
(lp306
I0
aI0
aI0
aI0
aI0
aI0
aI0
aI0
aI0
aI0
aI0
aI0
aI0
aI0
aI0
aI0
aI0
aI0
aI0
aI0
aI0
aI0
aI0
aI0
aI0
aI1
aI1
aI1
aI1
aI1
aI1
aI1
aI1
aI1
aI1
aI1
aI1
aI1
aI1
aI1
aI1
aI1
aI1
aI1
aI0
aI0
aI0
aI0
aI0
aI3
aI2
aI3
aI0
aI0
aI0
aI0
aI0
aI0
aI0
aI0
aI0
aI3
aI0
aI1
aI0
aI3
aI0
aI3
aI0
aI3
aI2
aI2
aI2
aI1
aI0
aI2
aI2
aI3
aI3
aI0
aI0
aI0
aI0
aI3
aI3
aI3
aI3
aI3
aI3
aI3
aI3
aI0
aI3
aI2
aI2
aI1
aI2
aI3
aI3
aI2
aI3
aI3
aI0
aI3
aI3
aI2
aI2
aI1
aI2
asg5
I109
saa(lp307
g6
ag34
ag69
ag86
ag113
ag144
ag169
ag196
ag219
ag244
ag263
ag280
ag295
a(dp308
g3
(lp309
sg5
I0
sa(dp310
g3
(lp311
I0
aI1
aI0
aI0
aI3
aI0
aI0
aI0
aI0
aI3
aI0
aI0
aI0
aI0
aI0
aI0
aI0
aI1
aI1
aI0
aI0
aI0
aI1
aI0
aI1
aI1
aI0
aI0
aI0
aI3
aI0
aI0
aI0
aI0
aI0
aI0
aI0
aI1
aI1
aI1
aI0
aI0
aI1
aI1
aI0
aI1
aI0
aI3
aI0
aI1
aI0
aI3
aI0
aI1
aI0
aI1
aI2
aI1
aI0
aI1
aI0
aI3
aI3
aI0
aI1
aI1
aI1
aI0
aI0
aI0
aI1
aI2
aI1
aI1
aI2
aI1
aI2
aI1
aI0
aI1
aI2
aI1
aI0
aI1
aI2
aI1
aI1
aI1
aI1
aI2
aI1
aI2
aI2
aI2
aI1
aI1
aI1
aI1
aI1
aI1
aI1
aI0
aI0
aI1
aI1
aI0
aI3
aI0
aI1
aI1
aI1
aI0
aI0
aI1
aI1
aI1
aI0
aI0
aI0
aI0
aI0
aI0
aI0
aI0
aI0
aI0
aI0
aI0
aI0
aI0
aI1
aI1
aI1
aI1
aI1
aI0
aI0
aI0
aI0
aI3
aI2
aI3
aI3
aI0
aI3
aI3
aI2
aI1
aI0
aI3
aI0
aI0
aI1
aI1
aI1
aI1
aI1
aI0
aI0
aI0
aI0
aI0
aI3
aI3
aI3
aI0
aI3
aI3
aI0
aI0
aI0
aI1
aI1
aI1
aI1
aI0
aI0
aI0
aI0
aI0
aI0
aI1
aI1
aI1
aI2
aI2
aI2
aI2
aI2
aI2
aI2
aI2
aI2
aI2
aI2
aI2
aI2
aI2
aI2
aI2
aI2
aI2
aI2
aI2
aI2
aI2
aI2
aI2
aI2
aI2
aI2
aI2
aI2
aI2
aI2
aI2
aI2
aI2
aI2
aI2
aI2
aI2
aI2
aI2
aI2
aI2
aI2
aI2
aI2
aI1
aI1
aI0
aI0
aI0
aI0
aI0
aI0
aI0
aI0
aI0
aI0
aI0
aI0
aI0
aI0
aI0
aI0
aI0
aI0
aI0
aI0
aI0
aI0
aI0
aI0
aI0
aI0
aI0
aI0
aI0
aI0
aI0
aI0
aI0
aI0
aI0
aI0
aI0
aI0
aI0
aI0
aI0
aI0
aI0
aI0
aI0
aI1
aI1
aI1
aI1
aI1
aI1
aI1
aI1
aI1
aI1
aI2
aI2
aI2
aI2
aI2
aI2
aI2
aI2
aI2
aI2
aI2
aI2
aI2
aI2
aI2
aI2
aI2
aI2
aI2
aI2
aI2
aI2
aI2
aI2
aI2
aI2
aI2
aI2
aI2
aI2
aI2
aI2
aI2
aI2
aI2
aI2
aI2
aI2
aI3
aI3
aI3
aI3
aI3
aI3
aI3
aI3
aI2
aI2
aI2
aI2
aI2
aI2
aI2
aI2
aI3
aI2
aI2
aI3
aI3
aI3
aI3
aI3
aI3
aI3
aI3
aI3
asg5
I352
sa(dp312
g226
(lp313
I0
aI1
aI0
aI0
aI3
aI0
aI0
aI1
aI0
aI3
aI0
aI3
aI0
aI0
aI0
aI0
aI0
aI0
aI0
aI1
aI1
aI0
aI0
aI0
aI1
aI0
aI1
aI1
aI0
aI0
aI0
aI3
aI0
aI0
aI0
aI0
aI0
aI0
aI0
aI1
aI1
aI1
aI0
aI0
aI1
aI1
aI0
aI1
aI1
aI1
aI1
aI1
aI1
aI0
aI0
aI0
aI0
aI1
aI1
aI0
aI1
aI0
aI3
aI0
aI1
aI1
aI0
aI0
aI0
aI0
aI0
aI1
asg228
I72
sa(dp314
g3
(lp315
I2
aI3
aI2
aI1
aI2
aI3
aI2
aI1
aI2
aI3
aI2
aI2
aI2
aI2
aI1
aI2
aI2
aI2
aI2
aI2
aI2
aI2
aI2
aI2
aI3
aI2
aI3
aI3
aI3
aI3
aI3
aI3
aI0
aI0
aI0
aI0
aI0
aI0
aI0
aI0
aI0
aI0
aI0
aI0
aI0
aI0
aI0
aI0
aI0
aI0
aI0
aI0
aI0
aI0
aI0
aI0
aI0
aI0
aI0
aI0
aI0
aI0
aI0
aI0
aI0
aI0
aI0
aI0
aI0
aI0
aI3
aI3
aI3
aI3
aI3
aI3
aI3
aI3
aI3
aI3
aI2
aI2
aI2
aI2
aI2
aI2
aI2
aI2
aI2
aI2
aI2
aI2
aI2
aI2
aI2
aI2
aI2
aI2
aI2
aI2
aI2
aI2
aI2
aI2
aI2
aI2
aI2
aI2
aI2
aI2
aI2
aI2
aI2
aI2
aI2
aI2
aI2
aI2
aI2
aI2
aI2
aI2
aI2
aI2
aI2
aI3
aI3
aI0
aI0
aI0
aI0
aI0
aI0
aI0
aI0
aI0
aI0
aI0
aI0
aI0
aI0
aI0
aI0
aI0
aI0
aI0
aI0
aI0
aI0
aI0
aI0
aI0
aI0
aI0
aI0
aI0
aI0
aI0
aI0
aI0
aI0
aI0
aI0
aI0
aI0
aI0
aI0
aI0
aI0
aI0
aI0
aI0
aI3
aI3
aI3
aI2
aI2
aI2
aI2
aI2
aI2
aI3
aI3
aI3
aI3
aI2
aI2
aI2
aI1
aI3
aI1
aI1
aI3
aI1
aI2
aI1
aI0
aI2
aI3
aI0
aI1
aI2
aI1
aI3
aI1
aI1
aI2
aI2
aI2
aI2
aI2
aI3
aI3
aI3
aI3
aI3
aI2
aI2
aI1
aI1
aI1
aI1
aI1
aI2
aI2
aI2
aI2
aI3
aI3
aI3
aI3
aI3
aI2
aI2
aI2
aI2
aI2
aI2
aI2
aI2
aI2
aI2
aI2
aI2
aI2
aI2
aI3
aI3
aI3
aI2
aI2
aI3
aI3
aI3
aI3
aI0
aI3
aI2
aI3
aI3
aI0
aI0
aI3
aI0
aI1
aI0
aI3
aI3
aI2
aI2
aI2
aI3
aI3
aI3
aI2
aI3
aI3
aI3
aI3
aI3
aI2
aI1
aI2
aI3
aI3
aI3
aI3
aI3
aI2
aI2
aI3
aI2
aI1
aI1
aI1
aI0
aI1
aI2
aI2
aI2
aI3
aI0
aI3
aI2
aI3
aI3
aI0
aI3
aI0
aI0
aI3
aI0
aI0
aI3
aI2
aI2
aI2
aI2
aI3
aI2
aI3
aI3
aI3
aI2
aI3
aI3
aI2
aI2
aI3
aI3
aI3
aI2
aI2
aI2
aI2
aI2
aI2
aI2
aI1
aI2
aI2
aI2
aI3
aI3
aI2
aI3
aI2
aI2
aI2
aI3
aI3
aI2
aI2
aI2
aI2
aI2
aI3
aI3
aI2
aI1
aI1
aI2
aI1
aI2
aI1
aI2
aI3
aI2
aI2
aI1
aI2
aI2
aI1
aI2
aI3
aI3
asg5
I376
sa(dp316
g3
(lp317
I0
aI1
aI0
aI0
aI3
aI0
aI0
aI0
aI0
aI3
aI0
aI0
aI3
aI2
aI3
aI3
aI3
aI3
aI0
aI3
aI0
aI0
aI3
aI3
aI3
aI0
aI0
aI0
aI3
aI0
aI0
aI0
aI0
aI3
aI0
aI0
aI0
aI0
aI0
aI0
aI0
aI0
aI1
aI1
aI2
aI1
aI1
aI1
aI1
aI1
aI1
aI1
aI0
aI0
aI3
aI3
aI3
aI3
aI0
aI0
aI0
aI1
aI0
aI1
aI1
aI2
aI1
aI2
aI1
aI1
aI0
aI0
aI0
aI0
aI3
aI3
aI3
aI3
aI3
aI3
aI3
aI3
aI3
aI3
aI3
aI0
aI3
aI0
aI0
aI0
aI1
aI1
aI2
aI1
aI2
aI1
aI1
aI0
aI1
aI1
aI1
aI0
aI0
aI3
aI3
aI0
aI3
aI3
aI3
aI0
aI0
aI1
aI1
aI1
aI1
aI1
aI0
aI0
aI0
aI0
aI0
aI1
aI1
aI0
aI3
aI3
aI0
aI1
aI0
aI0
aI1
aI0
aI0
aI0
aI0
aI0
aI1
aI1
aI1
aI0
aI3
aI0
aI1
aI0
aI1
aI0
aI3
aI3
aI2
aI3
aI0
aI0
aI0
aI0
aI3
aI3
aI3
aI3
aI0
aI0
aI1
aI1
aI1
aI1
aI1
aI1
aI1
aI1
aI1
aI2
aI2
aI2
aI2
aI2
aI2
aI2
aI2
aI2
aI2
aI2
aI2
aI2
aI2
aI2
aI2
aI2
aI2
aI2
aI2
aI1
aI1
aI0
aI0
aI0
aI1
aI1
aI1
aI1
aI1
aI1
aI1
aI1
aI1
aI1
aI1
aI1
aI1
aI0
aI0
aI0
aI0
aI0
aI0
aI0
aI0
aI0
aI0
aI0
aI0
aI0
aI0
aI0
aI0
aI0
aI0
aI0
aI0
aI0
aI0
aI0
aI0
aI0
aI0
aI0
aI3
aI3
aI3
aI3
aI3
aI3
aI3
aI3
aI3
aI3
aI3
aI3
asg5
I246
sa(dp318
g3
(lp319
I0
aI0
aI0
aI0
aI0
aI0
aI0
aI0
aI0
aI0
aI0
aI0
aI0
aI0
aI0
aI0
aI0
aI0
aI0
aI0
aI0
aI0
aI0
aI0
aI0
aI1
aI1
aI1
aI1
aI1
aI1
aI1
aI1
aI1
aI1
aI1
aI1
aI1
aI1
aI1
aI1
aI1
aI1
aI1
aI0
aI0
aI0
aI0
aI0
aI3
aI2
aI3
aI0
aI0
aI0
aI0
aI0
aI0
aI0
aI0
aI0
aI3
aI3
aI3
aI0
aI0
aI0
aI1
aI0
aI1
aI1
aI1
aI1
aI0
aI3
aI0
aI3
aI0
aI3
aI0
aI3
aI3
aI3
aI2
aI3
aI3
aI3
aI3
aI2
aI2
aI0
aI0
aI0
aI2
aI1
aI3
aI1
aI3
aI2
aI0
aI2
aI2
aI2
aI3
aI3
aI3
aI3
aI0
aI3
aI0
aI0
aI1
aI2
aI0
aI0
aI3
aI3
aI3
aI3
aI2
aI1
aI2
aI2
aI3
aI3
aI0
aI0
aI3
aI2
aI3
aI3
aI3
aI2
aI2
aI3
aI3
aI0
aI0
aI1
aI2
aI1
aI1
aI2
aI2
aI3
aI2
aI2
aI3
aI3
aI0
aI0
aI3
aI3
aI2
aI2
aI2
aI2
aI2
aI2
aI2
aI3
aI3
aI2
aI2
aI3
aI3
aI3
aI2
aI2
aI2
aI2
aI2
aI2
aI2
aI1
aI2
aI2
aI2
aI3
aI3
aI2
aI3
aI2
aI2
aI2
aI3
aI3
aI2
aI2
aI2
aI2
aI2
aI3
aI2
aI1
aI2
aI1
aI2
aI1
aI2
aI3
aI2
aI2
aI1
aI2
aI2
aI2
aI3
asg5
I208
saa(lp320
g6
ag36
ag71
ag86
ag115
ag146
ag171
ag198
ag221
ag246
ag265
ag282
ag297
ag310
a(dp321
g3
(lp322
sg5
I0
sa(dp323
g3
(lp324
I2
aI2
aI2
aI1
aI2
aI3
aI3
aI3
aI3
aI0
aI0
aI0
aI0
aI1
aI2
aI1
aI0
aI0
aI1
aI1
aI1
aI2
aI2
aI2
aI2
aI2
aI2
aI1
aI1
aI1
aI1
aI1
aI2
aI1
aI1
aI1
aI1
aI0
aI1
aI1
aI1
aI1
aI1
aI1
aI1
aI0
aI0
aI1
aI1
aI1
aI0
aI0
aI0
aI0
aI0
aI0
aI0
aI0
aI0
aI0
aI0
aI0
aI0
aI0
aI1
aI1
aI1
aI1
aI1
aI0
aI0
aI0
aI0
aI3
aI2
aI3
aI0
aI3
aI3
aI3
aI0
aI0
aI1
aI1
aI1
aI1
aI1
aI0
aI0
aI0
aI0
aI0
aI3
aI3
aI3
aI0
aI3
aI3
aI0
aI0
aI0
aI1
aI1
aI1
aI1
aI0
aI0
aI0
aI0
aI0
aI0
aI1
aI1
aI1
aI2
aI2
aI2
aI2
aI2
aI2
aI2
aI2
aI2
aI2
aI2
aI2
aI2
aI2
aI2
aI2
aI2
aI2
aI2
aI2
aI2
aI2
aI2
aI2
aI2
aI2
aI2
aI2
aI2
aI2
aI2
aI2
aI2
aI2
aI2
aI2
aI2
aI2
aI2
aI2
aI2
aI2
aI2
aI2
aI2
aI1
aI1
aI0
aI0
aI0
aI0
aI0
aI0
aI0
aI0
aI0
aI0
aI0
aI0
aI0
aI0
aI0
aI0
aI0
aI0
aI0
aI0
aI0
aI0
aI0
aI0
aI0
aI0
aI0
aI0
aI0
aI0
aI0
aI0
aI0
aI0
aI0
aI0
aI0
aI0
aI0
aI0
aI0
aI0
aI0
aI0
aI0
aI1
aI1
aI1
aI1
aI1
aI1
aI1
aI1
aI1
aI1
aI2
aI2
aI2
aI2
aI2
aI2
aI2
aI2
aI2
aI2
aI2
aI2
aI2
aI2
aI2
aI2
aI2
aI2
aI2
aI2
aI2
aI2
aI2
aI2
aI2
aI2
aI2
aI2
aI2
aI2
aI2
aI2
aI2
aI2
aI2
aI2
aI2
aI2
aI3
aI3
aI3
aI3
aI3
aI3
aI3
aI3
aI2
aI2
aI2
aI2
aI2
aI2
aI2
aI2
aI3
aI2
aI2
aI3
aI3
aI3
aI3
aI3
aI3
aI3
aI3
aI3
asg5
I282
sa(dp325
g3
(lp326
I2
aI3
aI2
aI2
aI2
aI2
aI2
aI2
aI2
aI2
aI1
aI2
aI2
aI2
aI2
aI2
aI2
aI2
aI2
aI2
aI3
aI2
aI3
aI3
aI3
aI3
aI3
aI3
aI3
aI3
aI3
aI3
aI3
aI3
aI3
aI3
aI2
aI2
aI2
aI2
aI2
aI2
aI2
aI2
aI3
aI2
aI2
aI3
aI3
aI3
aI3
aI3
aI3
aI3
aI3
aI3
asg5
I56
sa(dp327
g3
(lp328
I1
aI1
aI1
aI1
aI1
aI1
aI1
aI1
aI1
aI0
aI0
aI1
aI0
aI0
aI0
aI0
aI0
aI0
aI0
aI0
aI1
aI1
aI1
aI1
aI1
aI1
aI1
aI1
aI0
aI0
aI0
aI0
aI0
aI0
aI0
aI0
aI0
aI0
aI0
aI0
aI0
aI0
aI0
aI0
aI0
aI0
aI0
aI0
aI0
aI0
aI0
aI0
aI0
aI0
aI0
aI0
aI0
aI0
aI0
aI0
aI0
aI0
aI0
aI0
aI0
aI0
aI3
aI3
aI3
aI3
aI3
aI3
aI3
aI3
aI3
aI3
aI2
aI2
aI2
aI2
aI2
aI2
aI2
aI2
aI2
aI2
aI2
aI2
aI2
aI2
aI2
aI2
aI2
aI2
aI2
aI2
aI2
aI2
aI2
aI2
aI2
aI2
aI2
aI2
aI2
aI2
aI2
aI2
aI2
aI2
aI2
aI2
aI2
aI2
aI2
aI2
aI2
aI2
aI2
aI2
aI2
aI3
aI3
aI0
aI0
aI0
aI0
aI0
aI0
aI0
aI0
aI0
aI0
aI0
aI0
aI0
aI0
aI0
aI0
aI0
aI0
aI0
aI0
aI0
aI0
aI0
aI0
aI0
aI0
aI0
aI0
aI0
aI0
aI0
aI0
aI0
aI0
aI0
aI0
aI0
aI0
aI0
aI0
aI0
aI0
aI0
aI0
aI0
aI3
aI3
aI3
aI2
aI2
aI2
aI2
aI2
aI2
aI3
aI3
aI3
aI3
aI2
aI2
aI2
aI2
aI1
aI0
aI1
aI2
aI1
aI1
aI1
aI2
aI2
aI2
aI2
aI2
aI3
aI3
aI3
aI3
aI3
aI2
aI2
aI1
aI2
aI3
aI0
aI2
aI1
aI1
aI1
aI1
aI0
aI3
aI3
aI2
aI1
aI3
aI3
aI1
aI0
aI2
aI3
aI0
aI2
aI3
aI1
aI1
aI3
aI0
aI1
aI3
aI1
aI3
aI1
aI2
aI0
aI1
aI1
aI1
aI2
aI2
aI2
aI2
aI3
aI3
aI3
aI3
aI3
aI2
aI2
aI2
aI2
aI2
aI2
aI2
aI2
aI2
aI2
aI2
aI2
aI2
aI2
aI3
aI3
aI0
aI3
aI2
aI2
aI2
aI3
aI3
aI3
aI0
aI3
aI3
aI3
aI0
aI3
aI0
aI1
aI1
aI2
aI1
aI0
aI1
aI2
aI1
aI2
aI2
aI2
aI3
aI3
aI0
aI3
aI3
aI3
aI3
aI0
aI1
aI2
aI2
aI1
aI1
aI2
aI1
aI2
aI2
aI3
aI3
aI3
aI3
aI3
aI3
aI0
aI0
aI0
aI0
aI1
aI0
aI3
aI0
aI0
aI1
aI2
aI1
aI0
aI0
aI3
aI3
aI3
aI3
aI2
aI2
aI1
aI2
aI2
aI3
aI3
aI3
aI3
aI3
aI3
aI3
aI2
aI1
aI1
aI2
aI2
aI2
aI2
aI3
aI0
aI0
aI3
aI0
aI3
aI2
aI3
aI0
aI3
aI3
aI2
aI1
aI2
aI2
aI3
aI0
aI3
aI2
aI3
aI3
aI0
aI3
aI3
aI2
aI1
aI2
aI3
aI3
aI3
aI0
aI0
aI1
aI2
aI3
aI2
aI2
aI2
aI3
aI3
aI2
aI2
aI3
aI3
aI3
aI2
aI2
aI2
aI2
aI2
aI2
aI2
aI1
aI2
aI2
aI2
aI3
aI3
aI2
aI3
aI2
aI2
aI2
aI3
aI3
aI2
aI2
aI2
aI2
aI2
aI3
aI2
aI3
aI0
aI1
aI3
aI2
aI3
aI3
aI3
aI0
aI3
aI0
aI0
aI3
aI3
aI3
aI0
aI0
aI0
aI3
aI0
aI0
aI0
aI0
aI3
aI0
aI0
aI0
aI0
aI0
aI0
aI0
aI0
aI1
aI1
aI2
aI1
aI1
aI1
aI1
aI1
aI1
aI1
aI0
aI0
aI3
aI3
aI3
aI3
aI0
aI0
aI3
aI0
aI1
aI1
aI0
aI1
aI1
aI2
aI1
aI2
aI1
aI1
aI0
aI0
aI0
aI0
aI3
aI3
aI3
aI3
aI3
aI3
aI3
aI3
aI3
aI3
aI3
aI0
aI3
aI0
aI0
aI0
aI1
aI1
aI2
aI1
aI2
aI1
aI1
aI0
aI1
aI1
aI1
aI0
aI0
aI3
aI3
aI0
aI3
aI3
aI3
aI0
aI0
aI1
aI1
aI1
aI1
aI1
aI0
aI0
aI0
aI0
aI0
aI0
aI0
aI1
aI0
aI3
aI0
aI1
aI0
aI1
aI0
aI1
aI2
aI1
aI1
aI0
aI3
aI0
aI0
aI0
aI1
aI0
aI3
aI3
aI0
aI1
aI1
aI0
aI1
aI0
aI3
aI3
aI2
aI3
aI0
aI0
aI0
aI0
aI3
aI3
aI3
aI3
aI0
aI0
aI1
aI1
aI1
aI1
aI1
aI1
aI1
aI1
aI1
aI2
aI2
aI2
aI2
aI2
aI2
aI2
aI2
aI2
aI2
aI2
aI2
aI2
aI2
aI2
aI2
aI2
aI2
aI2
aI2
aI1
aI1
aI0
aI0
aI0
aI1
aI1
aI1
aI1
aI1
aI1
aI1
aI1
aI1
aI1
aI1
aI1
aI1
aI0
aI0
aI0
aI0
aI0
aI0
aI0
aI0
aI0
aI0
aI0
aI0
aI0
aI0
aI0
aI0
aI0
aI0
aI0
aI0
aI0
aI0
aI0
aI0
aI0
aI0
aI0
aI3
aI3
aI3
aI3
aI3
aI3
aI3
aI3
aI3
aI3
aI3
aI3
asg5
I666
sa(dp329
g3
(lp330
I0
aI0
aI0
aI0
aI0
aI0
aI0
aI0
aI0
aI0
aI0
aI0
aI0
aI0
aI0
aI0
aI0
aI0
aI0
aI0
aI0
aI0
aI0
aI0
aI0
aI1
aI1
aI1
aI1
aI1
aI1
aI1
aI1
aI1
aI1
aI1
aI1
aI1
aI1
aI1
aI1
aI1
aI1
aI1
aI0
aI0
aI0
aI0
aI3
aI0
aI1
aI0
aI0
aI0
aI1
aI0
aI0
aI0
aI0
aI1
aI0
aI0
aI0
aI0
aI0
aI0
aI0
aI1
aI1
aI1
aI0
aI0
aI0
aI0
aI0
aI0
aI0
aI0
aI0
aI0
aI0
aI0
aI0
aI0
aI1
aI1
aI1
aI1
aI1
aI0
aI0
aI0
aI0
aI3
aI2
aI3
aI0
aI3
aI3
aI3
aI0
aI0
aI1
aI1
aI1
aI1
aI1
aI0
aI0
aI0
aI0
aI0
aI3
aI3
aI3
aI3
aI0
aI3
aI0
aI0
aI0
aI1
aI1
aI1
aI1
aI0
aI0
aI0
aI0
aI0
aI0
aI1
aI1
aI1
aI2
aI2
aI2
aI2
aI2
aI2
aI2
aI2
aI2
aI2
aI2
aI2
aI2
aI2
aI2
aI2
aI2
aI2
aI2
aI2
aI2
aI2
aI2
aI2
aI2
aI2
aI2
aI2
aI2
aI2
aI2
aI2
aI2
aI2
aI2
aI2
aI2
aI2
aI2
aI2
aI2
aI2
aI2
aI2
aI2
aI1
aI1
aI0
aI0
aI0
aI0
aI0
aI0
aI0
aI0
aI0
aI0
aI0
aI0
aI0
aI0
aI0
aI0
aI0
aI0
aI0
aI0
aI0
aI0
aI0
aI0
aI0
aI0
aI0
aI0
aI0
aI0
aI0
aI0
aI0
aI0
aI0
aI0
aI0
aI0
aI0
aI0
aI0
aI0
aI0
aI0
aI0
aI1
aI1
aI1
aI1
aI1
aI1
aI1
aI1
aI1
aI1
aI2
aI2
aI2
aI2
aI2
aI2
aI2
aI2
aI2
aI2
aI2
aI2
aI2
aI2
aI2
aI2
aI2
aI2
aI2
aI2
aI2
aI2
aI2
aI2
aI2
aI2
aI2
aI2
aI2
aI2
aI2
aI2
aI2
aI2
aI2
aI2
aI2
aI2
aI3
aI3
aI0
aI0
aI3
aI3
aI3
aI3
aI3
aI3
aI2
aI2
aI2
aI2
aI2
aI2
aI2
aI2
aI2
aI2
aI3
aI2
aI2
aI3
aI3
aI3
aI3
aI3
aI3
aI3
aI3
aI3
asg5
I306
saa(lp331
g6
ag38
ag73
ag86
ag117
ag148
ag173
ag200
ag223
ag248
ag267
ag284
ag299
ag312
ag323
a(dp332
g3
(lp333
sg5
I0
sa(dp334
g3
(lp335
I2
aI3
aI2
aI2
aI2
aI2
aI2
aI2
aI2
aI2
aI1
aI2
aI2
aI2
aI2
aI2
aI2
aI2
aI2
aI3
aI2
aI1
aI2
aI3
aI3
aI3
aI3
aI3
aI3
aI3
aI0
aI0
aI0
aI0
aI0
aI0
aI0
aI0
aI0
aI0
aI0
aI0
aI0
aI0
aI0
aI0
aI0
aI0
aI0
aI0
aI0
aI0
aI0
aI0
aI0
aI0
aI0
aI0
aI0
aI0
aI0
aI0
aI0
aI0
aI0
aI0
aI0
aI0
aI3
aI3
aI3
aI3
aI3
aI3
aI3
aI3
aI3
aI3
aI2
aI2
aI2
aI2
aI2
aI2
aI2
aI2
aI2
aI2
aI2
aI2
aI2
aI2
aI2
aI2
aI2
aI2
aI2
aI2
aI2
aI2
aI2
aI2
aI2
aI2
aI2
aI2
aI2
aI2
aI2
aI2
aI2
aI2
aI2
aI2
aI2
aI2
aI2
aI2
aI2
aI2
aI2
aI2
aI2
aI3
aI3
aI0
aI0
aI0
aI0
aI0
aI0
aI0
aI0
aI0
aI0
aI0
aI0
aI0
aI0
aI0
aI0
aI0
aI0
aI0
aI0
aI0
aI0
aI0
aI0
aI0
aI0
aI0
aI0
aI0
aI0
aI0
aI0
aI0
aI0
aI0
aI0
aI0
aI0
aI0
aI0
aI0
aI0
aI0
aI0
aI0
aI3
aI3
aI3
aI2
aI2
aI2
aI2
aI2
aI2
aI3
aI3
aI3
aI3
aI2
aI2
aI2
aI1
aI2
aI1
aI0
aI1
aI2
aI1
aI0
aI1
aI2
aI2
aI2
aI2
aI2
aI2
aI3
aI3
aI3
aI3
aI3
aI2
aI2
aI1
aI1
aI2
aI3
aI3
aI0
aI1
aI1
aI1
aI1
aI1
aI2
aI2
aI2
aI2
aI3
aI3
aI3
aI3
aI3
aI2
aI2
aI2
aI2
aI2
aI2
aI2
aI2
aI2
aI2
aI2
aI2
aI2
aI2
aI3
aI3
aI3
aI2
aI2
aI3
aI3
aI0
aI3
aI3
aI3
aI3
aI0
aI3
aI2
aI3
aI3
aI2
aI2
aI3
aI3
aI2
aI2
aI2
aI3
aI0
aI0
aI0
aI0
aI3
aI3
aI3
aI3
aI2
aI2
aI3
aI0
aI0
aI0
aI1
aI0
aI3
aI3
aI0
aI0
aI0
asg5
I288
sa(dp336
g3
(lp337
I1
aI1
aI1
aI1
aI1
aI1
aI1
aI1
aI1
aI1
aI1
aI1
aI2
aI2
aI2
aI2
aI2
aI2
aI2
aI2
aI2
aI2
aI2
aI2
aI2
aI2
aI2
aI2
aI2
aI2
aI2
aI2
aI2
aI2
aI2
aI2
aI2
aI2
aI2
aI3
aI3
aI3
aI3
aI3
aI3
aI3
aI3
aI3
aI3
aI3
aI3
aI3
aI2
aI2
aI2
aI3
aI3
aI0
aI0
aI0
aI0
aI0
aI0
aI0
aI0
aI0
aI0
aI0
aI0
aI0
aI0
aI0
aI0
aI0
aI0
aI0
aI0
aI3
aI3
aI3
aI3
aI3
aI3
aI3
aI3
aI3
aI2
aI2
aI1
aI1
aI1
aI1
aI2
aI2
aI2
aI2
aI1
aI2
aI1
aI1
aI2
aI3
aI2
aI1
aI2
aI3
aI3
aI2
aI1
aI1
aI2
aI2
aI3
aI2
aI1
aI2
aI2
aI3
aI2
aI2
aI3
aI3
aI3
aI3
aI3
aI2
aI2
aI2
aI2
aI2
aI3
aI3
aI3
aI3
aI3
aI2
aI2
aI1
aI1
aI1
aI2
aI1
aI1
aI2
aI2
aI3
aI3
aI3
aI2
aI3
aI3
aI0
aI3
aI0
aI3
aI3
aI2
aI2
aI2
aI1
aI2
aI1
aI1
aI1
aI1
aI1
aI1
aI1
aI1
aI1
aI1
aI1
aI2
aI2
aI2
aI2
aI3
aI3
aI0
aI3
aI0
aI3
aI3
aI2
aI3
aI2
aI2
aI2
aI1
aI1
aI1
aI1
aI2
aI2
aI3
aI3
aI3
aI3
aI3
aI3
aI3
aI0
aI3
aI3
aI2
aI2
aI2
aI2
aI2
aI2
aI2
aI2
aI1
aI2
aI2
aI2
aI2
aI1
aI2
aI1
aI2
aI3
aI2
aI1
aI1
aI1
aI2
aI2
aI1
aI2
aI1
aI1
aI1
aI1
aI0
aI1
aI0
aI0
aI0
aI0
aI0
aI1
aI1
aI0
aI0
aI0
aI1
aI0
aI1
aI1
aI0
aI0
aI0
aI3
aI0
aI0
aI0
aI0
aI0
aI0
aI0
aI1
aI1
aI1
aI0
aI0
aI1
aI1
aI0
aI0
aI0
aI0
aI0
aI1
aI0
aI1
aI1
aI1
aI0
aI0
aI1
aI0
aI0
aI1
aI1
aI1
aI1
aI1
aI1
aI1
aI1
aI0
aI3
aI0
aI1
aI0
aI0
aI3
aI2
aI3
asg5
I300
sa(dp338
g3
(lp339
I0
aI0
aI0
aI0
aI0
aI0
aI0
aI0
aI0
aI0
aI0
aI0
aI0
aI0
aI0
aI0
aI0
aI0
aI0
aI0
aI0
aI0
aI0
aI0
aI0
aI1
aI1
aI1
aI1
aI1
aI1
aI1
aI1
aI1
aI1
aI1
aI1
aI1
aI1
aI1
aI1
aI1
aI1
aI1
aI0
aI0
aI0
aI0
aI0
aI3
aI2
aI3
aI0
aI0
aI0
aI0
aI0
aI0
aI0
aI0
aI0
aI3
aI3
aI3
aI0
aI3
aI0
aI1
aI0
aI3
aI3
aI0
aI3
aI0
aI3
aI2
aI2
aI3
aI0
aI3
aI3
aI3
aI3
aI0
aI3
aI0
aI0
aI3
aI0
aI0
asg5
I90
saa(lp340
g6
ag40
ag75
ag86
ag119
ag150
ag175
ag86
ag225
ag250
ag269
ag286
ag301
ag314
ag325
ag334
a(dp341
g3
(lp342
sg5
I0
sa(dp343
g226
(lp344
I3
aI0
aI1
aI0
aI3
aI0
aI0
aI0
aI1
aI0
aI0
aI0
aI0
aI0
aI0
aI0
aI3
aI0
aI0
aI0
aI1
aI0
aI0
aI3
aI0
aI1
aI0
aI3
aI3
aI3
aI3
aI3
aI3
aI3
aI3
aI3
aI3
aI3
aI3
aI3
aI3
aI3
aI3
aI3
aI2
aI2
aI2
aI2
aI2
aI2
aI2
aI2
aI2
aI2
aI2
aI2
aI2
aI2
aI2
aI2
aI2
aI2
aI2
aI2
aI2
aI2
aI2
aI2
aI2
aI2
aI2
aI2
aI2
aI2
aI2
aI2
aI2
aI2
aI2
aI2
aI2
aI2
aI2
aI2
aI2
aI2
aI2
aI2
aI2
aI3
aI3
aI0
aI0
aI0
aI0
aI0
aI0
aI0
aI0
aI0
aI0
aI0
aI0
aI0
aI0
aI0
aI0
aI0
aI0
aI0
aI0
aI0
aI0
aI0
aI0
aI0
aI0
aI0
aI0
aI0
aI0
aI0
aI0
aI0
aI0
aI0
aI0
aI0
aI0
aI0
aI0
aI0
aI0
aI0
aI0
aI0
aI3
aI3
aI3
aI2
aI2
aI2
aI2
aI2
aI2
aI3
aI3
aI3
aI3
aI2
aI2
aI2
aI2
aI1
aI0
aI1
aI2
aI1
aI0
aI1
aI2
aI1
aI0
aI2
aI2
aI2
aI2
aI3
aI3
aI3
aI0
aI1
aI1
aI3
aI3
aI3
aI2
aI3
aI0
aI1
aI3
aI2
aI0
aI2
aI1
aI0
aI3
aI2
aI0
aI1
aI1
aI1
aI2
aI0
aI1
aI3
aI2
aI1
aI0
aI2
aI3
aI0
aI3
aI2
aI3
aI1
aI1
aI0
aI1
aI2
aI3
aI3
aI1
aI0
aI1
aI1
aI2
aI2
aI2
aI3
aI3
aI3
aI3
aI3
aI2
aI2
aI2
aI1
aI1
aI1
aI1
aI0
aI1
aI2
aI2
aI2
aI2
aI3
aI3
aI3
aI3
aI3
aI2
aI2
aI2
aI2
aI2
aI2
aI2
aI2
aI2
aI2
aI2
aI2
aI2
aI2
aI2
aI2
aI2
aI1
aI1
aI0
aI0
aI0
aI0
aI0
aI0
aI0
aI0
aI0
aI0
aI0
aI0
aI0
aI0
aI0
aI1
aI1
aI2
aI2
aI1
aI0
aI0
aI2
aI2
aI2
aI3
aI2
aI1
aI2
aI2
aI2
aI2
aI2
aI2
aI2
aI2
aI2
aI2
aI2
aI2
aI2
aI3
aI3
aI3
aI3
aI3
aI3
aI2
aI2
aI2
aI1
aI1
aI1
aI1
aI1
aI2
aI2
aI3
aI3
aI2
aI3
aI3
aI3
aI2
aI2
aI2
aI2
aI2
aI2
aI3
aI2
aI2
aI3
aI3
aI3
aI0
aI0
aI0
aI0
aI0
aI0
aI0
aI0
aI1
aI0
aI0
aI0
aI0
aI1
aI0
aI0
aI0
aI0
aI0
aI3
aI3
aI0
aI3
aI0
aI3
aI2
aI3
aI2
aI3
aI3
aI0
aI3
aI2
aI2
aI1
aI2
aI2
aI1
aI2
aI3
aI3
aI0
aI3
aI3
aI0
aI0
aI0
aI3
aI2
aI2
aI3
aI0
aI0
aI3
aI3
aI3
aI3
aI2
aI3
aI0
aI0
aI3
aI3
aI2
aI1
aI2
aI3
aI3
aI0
aI3
aI0
aI1
aI0
aI0
aI3
aI3
aI0
aI3
aI0
aI3
aI0
aI1
aI0
aI3
aI3
aI2
aI3
aI3
aI2
aI3
aI3
aI2
aI2
aI1
aI2
aI2
aI2
aI3
aI2
aI1
aI2
aI2
aI2
aI1
aI2
aI2
aI3
aI3
aI2
aI2
aI3
aI3
aI2
aI2
aI3
aI3
aI3
aI2
aI2
aI2
aI2
aI2
aI2
aI2
aI1
aI2
aI2
aI2
aI3
aI3
aI2
aI3
aI2
aI2
aI2
aI3
aI3
aI2
aI2
aI2
aI2
aI2
aI2
aI3
aI3
aI3
aI3
aI3
aI0
aI0
aI0
aI3
aI3
aI3
aI0
aI0
aI3
aI0
aI3
aI3
aI0
aI1
aI0
aI0
aI0
aI3
aI0
aI0
aI0
aI0
aI0
aI0
aI0
aI0
aI1
aI1
aI2
aI1
aI1
aI1
aI1
aI1
aI1
aI1
aI0
aI0
aI3
aI3
aI3
aI3
aI0
aI0
aI0
aI1
aI0
aI1
aI1
aI2
aI1
aI2
aI1
aI1
aI0
aI0
aI0
aI0
aI3
aI3
aI3
aI3
aI3
aI3
aI3
aI3
aI3
aI3
aI3
aI0
aI3
aI0
aI0
aI0
aI1
aI1
aI2
aI1
aI2
aI1
aI1
aI0
aI1
aI1
aI1
aI0
aI0
aI3
aI3
aI0
aI3
aI3
aI3
aI0
aI0
aI1
aI1
aI0
aI0
aI3
aI3
aI3
aI3
aI3
aI0
aI0
aI0
aI1
aI1
aI1
aI1
aI1
aI0
aI0
aI3
aI3
aI3
aI3
aI3
aI0
aI0
aI1
aI1
aI1
aI1
aI1
aI0
aI0
aI3
aI3
aI3
aI3
aI3
aI0
aI0
aI1
aI1
aI1
aI1
aI1
aI0
aI0
aI3
aI3
aI3
aI3
aI3
aI0
aI0
aI1
aI1
aI1
aI1
aI1
aI0
aI0
aI3
aI3
aI3
aI3
aI3
aI0
aI0
aI1
aI1
aI1
aI1
aI1
aI1
aI1
aI0
aI0
aI1
aI1
aI1
aI1
aI1
aI1
aI1
aI1
aI1
aI2
aI2
aI2
aI2
aI2
aI2
aI2
aI2
aI2
aI2
aI2
aI2
aI2
aI2
aI2
aI2
aI2
aI2
aI2
aI2
aI1
aI1
aI0
aI0
aI0
aI1
aI1
aI1
aI1
aI1
aI1
aI1
aI1
aI1
aI1
aI1
aI1
aI1
aI0
aI0
aI0
aI0
aI0
aI0
aI0
aI0
aI0
aI0
aI0
aI0
aI0
aI0
aI0
aI0
aI0
aI0
aI0
aI0
aI0
aI0
aI0
aI0
aI0
aI0
aI0
aI3
aI3
aI3
aI3
aI3
aI3
aI3
aI3
aI3
aI3
aI3
aI3
asg228
I742
sa(dp345
g226
(lp346
I2
aI2
aI3
aI0
aI0
aI0
aI0
aI0
aI0
aI0
aI1
aI0
aI0
aI0
aI0
aI0
aI0
aI0
aI3
aI0
aI0
aI0
aI1
aI0
aI3
aI0
aI0
aI0
aI3
aI3
aI3
aI3
aI3
aI3
aI3
aI3
aI3
aI3
aI3
aI3
aI3
aI3
aI3
aI3
aI2
aI2
aI2
aI2
aI2
aI2
aI2
aI2
aI2
aI2
aI2
aI2
aI2
aI2
aI2
aI2
aI2
aI2
aI2
aI2
aI2
aI2
aI2
aI2
aI2
aI2
aI2
aI2
aI2
aI2
aI2
aI2
aI2
aI2
aI2
aI2
aI2
aI2
aI2
aI2
aI2
aI2
aI2
aI2
aI2
aI3
aI3
aI0
aI0
aI0
aI0
aI0
aI0
aI0
aI0
aI0
aI0
aI0
aI0
aI0
aI0
aI0
aI0
aI0
aI0
aI0
aI0
aI0
aI0
aI0
aI0
aI0
aI0
aI0
aI0
aI0
aI0
aI0
aI0
aI0
aI0
aI0
aI0
aI0
aI0
aI0
aI0
aI0
aI0
aI0
aI0
aI0
aI3
aI3
aI3
aI2
aI2
aI2
aI2
aI2
aI2
aI3
aI3
aI3
aI3
aI2
aI2
aI2
aI1
aI2
aI1
aI0
aI1
aI1
aI1
aI2
aI2
aI2
aI2
aI2
aI2
aI3
aI3
aI3
aI3
aI3
aI2
aI2
aI2
aI1
aI1
aI1
aI1
aI1
aI2
aI2
aI2
aI3
aI3
aI3
aI3
aI3
aI2
aI2
aI2
aI2
aI2
aI2
aI2
aI2
aI2
aI2
aI2
aI2
aI2
aI2
aI2
aI2
aI2
aI1
aI1
aI0
aI0
aI0
aI0
aI0
aI0
aI0
aI0
aI0
aI0
aI0
aI0
aI0
aI0
aI0
aI1
aI1
aI2
aI2
aI2
aI1
aI0
aI0
aI0
aI2
aI0
aI3
aI1
aI2
aI2
aI2
aI2
aI2
aI2
aI2
aI2
aI2
aI2
aI2
aI2
aI2
aI2
aI2
aI2
aI2
aI3
aI3
aI3
aI3
aI3
aI3
aI2
aI2
aI2
aI1
aI1
aI1
aI1
aI1
aI2
aI2
aI3
aI3
aI2
aI3
aI3
aI3
aI2
aI2
aI2
aI2
aI2
aI2
aI3
aI2
aI2
aI3
aI3
aI3
aI0
aI0
aI0
aI0
aI3
aI0
aI3
aI2
aI2
aI2
aI2
aI2
aI3
aI3
aI3
aI3
aI3
aI3
aI3
aI3
aI3
aI3
aI3
aI3
aI3
aI3
aI3
aI3
aI3
aI2
aI2
aI2
aI2
aI2
aI2
aI3
aI3
aI3
aI3
aI2
aI3
aI2
aI3
aI3
aI3
aI2
aI2
aI2
aI1
aI1
aI0
aI1
aI1
aI1
aI2
aI2
aI2
aI3
aI3
aI2
aI3
aI3
aI3
aI3
aI3
aI3
aI2
aI2
aI3
aI2
aI1
aI2
aI1
aI2
aI1
aI1
aI1
aI1
aI2
aI1
aI1
aI1
aI0
aI1
aI1
aI1
aI2
aI2
aI2
aI2
aI2
aI2
asg228
I376
saa(lp347
g6
ag42
ag77
ag86
ag121
ag152
ag177
ag202
ag229
ag252
ag271
ag288
ag303
ag316
ag327
ag336
ag343
a(dp348
g3
(lp349
sg5
I0
sa(dp350
g226
(lp351
I1
aI1
aI1
aI1
aI1
aI1
aI1
aI1
aI1
aI1
aI1
aI1
aI2
aI2
aI2
aI2
aI2
aI2
aI2
aI2
aI2
aI2
aI2
aI2
aI2
aI2
aI2
aI2
aI2
aI2
aI2
aI2
aI2
aI2
aI2
aI2
aI2
aI2
aI2
aI3
aI3
aI3
aI3
aI3
aI3
aI3
aI3
aI3
aI3
aI3
aI3
aI3
aI2
aI2
aI2
aI3
aI3
aI0
aI0
aI0
aI0
aI0
aI0
aI0
aI0
aI0
aI0
aI0
aI0
aI0
aI0
aI0
aI0
aI0
aI0
aI0
aI0
aI3
aI3
aI3
aI3
aI3
aI3
aI3
aI3
aI3
aI2
aI2
aI3
aI3
aI3
aI3
aI3
aI3
aI3
aI2
aI2
aI1
aI1
aI1
aI1
aI1
aI2
aI2
aI3
aI3
aI3
aI3
aI3
aI2
aI2
aI1
aI1
aI1
aI1
aI1
aI2
aI2
aI3
aI3
aI3
aI3
aI3
aI2
aI2
aI1
aI1
aI1
aI1
aI1
aI2
aI2
aI3
aI3
aI3
aI3
aI3
aI2
aI2
aI1
aI1
aI1
aI1
aI1
aI2
aI2
aI3
aI3
aI3
aI3
aI3
aI2
aI2
aI2
aI1
aI1
aI1
aI1
aI1
aI2
aI2
aI3
aI3
aI2
aI2
aI1
aI1
aI1
aI2
aI1
aI1
aI2
aI2
aI3
aI3
aI3
aI2
aI3
aI3
aI0
aI3
aI0
aI3
aI3
aI2
aI2
aI2
aI1
aI2
aI1
aI1
aI1
aI1
aI1
aI1
aI1
aI1
aI1
aI1
aI1
aI2
aI2
aI2
aI2
aI3
aI3
aI0
aI3
aI0
aI3
aI3
aI2
aI3
aI2
aI2
aI2
aI1
aI1
aI1
aI1
aI2
aI2
aI3
aI3
aI3
aI3
aI3
aI3
aI3
aI0
aI3
aI3
aI2
aI2
aI2
aI2
aI2
aI2
aI2
aI2
aI1
aI2
aI2
aI3
aI2
aI2
aI1
aI1
aI1
aI2
aI2
aI2
aI1
aI1
aI1
aI2
aI2
aI2
aI1
aI1
aI1
aI1
aI1
aI0
aI0
aI0
aI0
aI0
aI0
aI1
aI1
aI0
aI0
aI0
aI1
aI0
aI1
aI1
aI0
aI0
aI0
aI3
aI0
aI0
aI0
aI0
aI0
aI0
aI0
aI1
aI1
aI1
aI0
aI0
aI1
aI1
aI0
aI0
aI0
aI0
aI1
aI0
aI0
aI1
aI1
aI0
aI1
aI2
aI1
aI0
aI0
aI0
aI3
aI3
aI3
aI2
aI3
aI2
aI3
aI2
aI2
aI0
aI2
aI1
aI1
aI1
aI1
aI1
aI2
aI2
aI2
aI2
aI1
aI1
aI1
aI0
aI1
aI2
aI1
aI0
aI1
aI0
aI0
aI1
aI0
aI0
aI0
aI1
aI0
aI1
aI1
aI1
aI1
aI0
aI0
aI1
aI2
aI2
aI1
aI1
aI1
aI2
aI1
aI2
aI3
aI2
aI2
aI1
aI1
aI1
aI0
aI3
aI0
aI1
aI1
aI0
aI1
aI1
aI2
aI2
aI3
aI3
aI2
aI2
aI2
aI2
aI2
aI3
aI3
aI2
aI2
aI1
aI1
aI0
aI3
aI1
aI2
aI2
aI2
aI2
aI2
aI2
aI2
aI2
aI3
aI3
aI3
aI3
aI3
aI3
aI3
aI3
aI3
aI3
aI3
aI3
aI3
aI3
aI3
aI0
aI3
aI2
aI3
aI2
aI2
aI2
aI2
aI2
aI2
aI3
aI3
aI3
aI3
aI2
aI3
aI2
aI3
aI3
aI3
aI2
aI2
aI2
aI1
aI1
aI0
aI1
aI1
aI1
aI2
aI2
aI2
aI3
aI3
aI2
aI3
aI3
aI3
aI3
aI3
aI3
aI2
aI2
aI2
aI3
aI0
aI1
aI1
aI0
aI0
aI2
aI0
aI3
aI2
aI0
aI2
aI2
aI2
aI2
aI1
aI2
aI1
aI1
aI1
aI1
aI2
aI1
aI1
aI1
aI0
aI1
aI1
aI1
aI2
aI2
aI2
aI2
aI2
aI2
asg228
I498
saa(lp352
g6
ag44
ag79
ag86
ag123
ag154
ag179
ag206
ag231
ag254
ag273
ag290
ag305
ag318
ag329
ag338
ag345
ag350
a(dp353
g3
(lp354
sg5
I0
saa.