(lp0
(dp1
S'best_trail'
p2
(lp3
I995
aI1023
aI953
aI989
aI1147
aI863
aI965
aI985
aI1035
aI875
asS'running_time'
p4
(lp5
F800.3364231586456
aF747.5420179367065
aF882.2977299690247
aF744.5991539955139
aF519.6239359378815
aF717.0797090530396
aF717.987752199173
aF536.3441030979156
aF1134.9512300491333
aF544.1505620479584
asS'best_at_iteration'
p6
(lp7
I12
aI8
aI3
aI2
aI7
aI7
aI10
aI14
aI4
aI11
asa(dp8
g2
(lp9
I1409
aI1257
aI1307
aI1053
aI1325
aI1243
aI2769
aI1179
aI1375
aI1179
asg4
(lp10
F1102.0253970623016
aF741.6898989677429
aF1133.9156970977783
aF862.0254800319672
aF816.2016701698303
aF791.6694540977478
aF1571.3450009822845
aF621.0808820724487
aF1465.8513691425323
aF1510.475144147873
asg6
(lp11
I7
aI13
aI14
aI6
aI1
aI12
aI1
aI14
aI5
aI14
asa.